
shadowstack.elf:     file format elf32-littleriscv
architecture: riscv:rv32, flags 0x00000112:
EXEC_P, HAS_SYMS, D_PAGED
start address 0xe0000080

Sections:
Idx Name          Size      VMA       LMA       File off  Algn
  0 .vectors      00000084  e0000000  e0000000  00001000  2**0
                  CONTENTS, ALLOC, LOAD, READONLY, CODE
  1 .text         000006ba  e0000084  e0000084  00001084  2**1
                  CONTENTS, ALLOC, LOAD, READONLY, CODE
  2 .rodata       00000044  e0000740  e0000740  00001740  2**2
                  CONTENTS, ALLOC, LOAD, READONLY, DATA
  3 .data         00000020  e0000784  e0000784  00001784  2**2
                  CONTENTS, ALLOC, LOAD, DATA
  4 .bss          00000000  e00007a4  e00007a4  000017a4  2**0
                  ALLOC
  5 .stack        00002000  e0008000  e0008000  00002000  2**0
                  ALLOC
  6 .debug_frame  00000278  00000000  00000000  000017a4  2**2
                  CONTENTS, READONLY, DEBUGGING
  7 .debug_info   00000e20  00000000  00000000  00001a1c  2**0
                  CONTENTS, READONLY, DEBUGGING
  8 .debug_abbrev 00000571  00000000  00000000  0000283c  2**0
                  CONTENTS, READONLY, DEBUGGING
  9 .debug_loc    00000d52  00000000  00000000  00002dad  2**0
                  CONTENTS, READONLY, DEBUGGING
 10 .debug_aranges 00000070  00000000  00000000  00003b00  2**3
                  CONTENTS, READONLY, DEBUGGING
 11 .debug_ranges 000001a8  00000000  00000000  00003b70  2**3
                  CONTENTS, READONLY, DEBUGGING
 12 .debug_line   00000ab9  00000000  00000000  00003d18  2**0
                  CONTENTS, READONLY, DEBUGGING
 13 .debug_str    00000460  00000000  00000000  000047d1  2**0
                  CONTENTS, READONLY, DEBUGGING
 14 .comment      0000001a  00000000  00000000  00004c31  2**0
                  CONTENTS, READONLY
 15 .Pulp_Chip.Info 0000004e  00000000  00000000  00004c4b  2**0
                  CONTENTS, READONLY

Disassembly of section .vectors:

e0000000 <_vectors_start>:
  .option norvc;
  
  .org 0x00
  .rept 10
  jal x0, default_exc_handler
  .endr
e0000000:	6600006f          	j	e0000660 <default_exc_handler>
e0000004:	65c0006f          	j	e0000660 <default_exc_handler>
e0000008:	6580006f          	j	e0000660 <default_exc_handler>
e000000c:	6540006f          	j	e0000660 <default_exc_handler>
e0000010:	6500006f          	j	e0000660 <default_exc_handler>
e0000014:	64c0006f          	j	e0000660 <default_exc_handler>
e0000018:	6480006f          	j	e0000660 <default_exc_handler>
e000001c:	6440006f          	j	e0000660 <default_exc_handler>
e0000020:	6400006f          	j	e0000660 <default_exc_handler>
e0000024:	63c0006f          	j	e0000660 <default_exc_handler>
  
  jal x0, default_exc_handler
e0000028:	6380006f          	j	e0000660 <default_exc_handler>
  
  jal x0, external_irq_handler
e000002c:	4f40006f          	j	e0000520 <external_irq_handler>

  .org 0x30
  .rept 18
  jal x0, default_exc_handler
  .endr
e0000030:	6300006f          	j	e0000660 <default_exc_handler>
e0000034:	62c0006f          	j	e0000660 <default_exc_handler>
e0000038:	6280006f          	j	e0000660 <default_exc_handler>
e000003c:	6240006f          	j	e0000660 <default_exc_handler>
e0000040:	6200006f          	j	e0000660 <default_exc_handler>
e0000044:	61c0006f          	j	e0000660 <default_exc_handler>
e0000048:	6180006f          	j	e0000660 <default_exc_handler>
e000004c:	6140006f          	j	e0000660 <default_exc_handler>
e0000050:	6100006f          	j	e0000660 <default_exc_handler>
e0000054:	60c0006f          	j	e0000660 <default_exc_handler>
e0000058:	6080006f          	j	e0000660 <default_exc_handler>
e000005c:	6040006f          	j	e0000660 <default_exc_handler>
e0000060:	6000006f          	j	e0000660 <default_exc_handler>
e0000064:	5fc0006f          	j	e0000660 <default_exc_handler>
e0000068:	5f80006f          	j	e0000660 <default_exc_handler>
e000006c:	5f40006f          	j	e0000660 <default_exc_handler>
e0000070:	5f00006f          	j	e0000660 <default_exc_handler>
e0000074:	5ec0006f          	j	e0000660 <default_exc_handler>
  jal x0, default_exc_handler
e0000078:	5e80006f          	j	e0000660 <default_exc_handler>
  jal x0, default_exc_handler
e000007c:	5e40006f          	j	e0000660 <default_exc_handler>


  // reset vector
  .org 0x80
  jal x0, reset_handler
e0000080:	5e40006f          	j	e0000664 <reset_handler>

Disassembly of section .text:

e0000084 <qprintchar.part.0>:
  return *(volatile int*)UART_REG_RBR;
}

void uart_sendchar(const char c) {
  // wait until there is space in the fifo
  while( (*(volatile unsigned int*)(UART_REG_LSR) & 0x20) == 0);
e0000084:	40000737          	lui	a4,0x40000
e0000088:	4b5c                	lw	a5,20(a4)
e000008a:	0207f793          	andi	a5,a5,32
e000008e:	dfed                	beqz	a5,e0000088 <qprintchar.part.0+0x4>

  // load FIFO
  *(volatile unsigned int*)(UART_REG_THR) = c;
e0000090:	c308                	sw	a0,0(a4)
    **str = c;
    ++(*str);
  }
  else
    putchar((char)c);
}
e0000092:	8082                	ret

e0000094 <qprints.constprop.3>:

static int qprints(char **out, const char *string, int width, int pad)
e0000094:	1101                	addi	sp,sp,-32
e0000096:	ca26                	sw	s1,20(sp)
e0000098:	c84a                	sw	s2,16(sp)
e000009a:	ce06                	sw	ra,28(sp)
e000009c:	cc22                	sw	s0,24(sp)
e000009e:	c64e                	sw	s3,12(sp)
e00000a0:	84aa                	mv	s1,a0
e00000a2:	892e                	mv	s2,a1
e00000a4:	00054503          	lbu	a0,0(a0)
{
  register int pc = 0, padchar = ' ';

  if (width > 0) {
e00000a8:	08b05563          	blez	a1,e0000132 <qprints.constprop.3+0x9e>
    register int len = 0;
    register const char *ptr;
    for (ptr = string; *ptr; ++ptr) ++len;
e00000ac:	c95d                	beqz	a0,e0000162 <qprints.constprop.3+0xce>
e00000ae:	87a6                	mv	a5,s1
    register int len = 0;
e00000b0:	4401                	li	s0,0
    for (ptr = string; *ptr; ++ptr) ++len;
e00000b2:	0785                	addi	a5,a5,1
e00000b4:	0007c703          	lbu	a4,0(a5)
e00000b8:	0405                	addi	s0,s0,1
e00000ba:	ff65                	bnez	a4,e00000b2 <qprints.constprop.3+0x1e>
    if (len >= width) width = 0;
e00000bc:	03244e63          	blt	s0,s2,e00000f8 <qprints.constprop.3+0x64>
    else width -= len;
    if (pad & PAD_ZERO) padchar = '0';
e00000c0:	00267413          	andi	s0,a2,2
    if (len >= width) width = 0;
e00000c4:	4901                	li	s2,0
  register int pc = 0, padchar = ' ';
e00000c6:	02000993          	li	s3,32
    if (pad & PAD_ZERO) padchar = '0';
e00000ca:	ec3d                	bnez	s0,e0000148 <qprints.constprop.3+0xb4>
    for ( ; width > 0; --width) {
      qprintchar (out, padchar);
      ++pc;
    }
  }
  for ( ; *string ; ++string) {
e00000cc:	0485                	addi	s1,s1,1
e00000ce:	3f5d                	jal	e0000084 <qprintchar.part.0>
e00000d0:	0004c503          	lbu	a0,0(s1)
    qprintchar (out, *string);
    ++pc;
e00000d4:	0405                	addi	s0,s0,1
  for ( ; *string ; ++string) {
e00000d6:	f97d                	bnez	a0,e00000cc <qprints.constprop.3+0x38>
  }
  for ( ; width > 0; --width) {
e00000d8:	01205863          	blez	s2,e00000e8 <qprints.constprop.3+0x54>
e00000dc:	84ca                	mv	s1,s2
e00000de:	14fd                	addi	s1,s1,-1
e00000e0:	854e                	mv	a0,s3
e00000e2:	374d                	jal	e0000084 <qprintchar.part.0>
e00000e4:	fced                	bnez	s1,e00000de <qprints.constprop.3+0x4a>
e00000e6:	944a                	add	s0,s0,s2
    qprintchar (out, padchar);
    ++pc;
  }

  return pc;
}
e00000e8:	8522                	mv	a0,s0
e00000ea:	40f2                	lw	ra,28(sp)
e00000ec:	4462                	lw	s0,24(sp)
e00000ee:	44d2                	lw	s1,20(sp)
e00000f0:	4942                	lw	s2,16(sp)
e00000f2:	49b2                	lw	s3,12(sp)
e00000f4:	6105                	addi	sp,sp,32
e00000f6:	8082                	ret
e00000f8:	40890433          	sub	s0,s2,s0
    if (pad & PAD_ZERO) padchar = '0';
e00000fc:	00267793          	andi	a5,a2,2
  register int pc = 0, padchar = ' ';
e0000100:	02000993          	li	s3,32
    if (pad & PAD_ZERO) padchar = '0';
e0000104:	c399                	beqz	a5,e000010a <qprints.constprop.3+0x76>
e0000106:	03000993          	li	s3,48
  if (!(pad & PAD_RIGHT)) {
e000010a:	8a05                	andi	a2,a2,1
    for ( ; width > 0; --width) {
e000010c:	8922                	mv	s2,s0
  if (!(pad & PAD_RIGHT)) {
e000010e:	e639                	bnez	a2,e000015c <qprints.constprop.3+0xc8>
    for ( ; width > 0; --width) {
e0000110:	02805363          	blez	s0,e0000136 <qprints.constprop.3+0xa2>
e0000114:	197d                	addi	s2,s2,-1
e0000116:	854e                	mv	a0,s3
e0000118:	37b5                	jal	e0000084 <qprintchar.part.0>
e000011a:	fe091de3          	bnez	s2,e0000114 <qprints.constprop.3+0x80>
e000011e:	0004c503          	lbu	a0,0(s1)
  for ( ; *string ; ++string) {
e0000122:	d179                	beqz	a0,e00000e8 <qprints.constprop.3+0x54>
e0000124:	0485                	addi	s1,s1,1
e0000126:	3fb9                	jal	e0000084 <qprintchar.part.0>
e0000128:	0004c503          	lbu	a0,0(s1)
    ++pc;
e000012c:	0405                	addi	s0,s0,1
  for ( ; *string ; ++string) {
e000012e:	fd59                	bnez	a0,e00000cc <qprints.constprop.3+0x38>
e0000130:	b765                	j	e00000d8 <qprints.constprop.3+0x44>
  register int pc = 0, padchar = ' ';
e0000132:	02000993          	li	s3,32
  for ( ; *string ; ++string) {
e0000136:	4401                	li	s0,0
e0000138:	d945                	beqz	a0,e00000e8 <qprints.constprop.3+0x54>
e000013a:	0485                	addi	s1,s1,1
e000013c:	37a1                	jal	e0000084 <qprintchar.part.0>
e000013e:	0004c503          	lbu	a0,0(s1)
    ++pc;
e0000142:	0405                	addi	s0,s0,1
  for ( ; *string ; ++string) {
e0000144:	f541                	bnez	a0,e00000cc <qprints.constprop.3+0x38>
e0000146:	bf49                	j	e00000d8 <qprints.constprop.3+0x44>
e0000148:	0485                	addi	s1,s1,1
e000014a:	3f2d                	jal	e0000084 <qprintchar.part.0>
e000014c:	0004c503          	lbu	a0,0(s1)
    if (pad & PAD_ZERO) padchar = '0';
e0000150:	4401                	li	s0,0
e0000152:	03000993          	li	s3,48
    ++pc;
e0000156:	0405                	addi	s0,s0,1
  for ( ; *string ; ++string) {
e0000158:	f935                	bnez	a0,e00000cc <qprints.constprop.3+0x38>
e000015a:	bfbd                	j	e00000d8 <qprints.constprop.3+0x44>
e000015c:	4401                	li	s0,0
e000015e:	f53d                	bnez	a0,e00000cc <qprints.constprop.3+0x38>
e0000160:	bfa5                	j	e00000d8 <qprints.constprop.3+0x44>
    for (ptr = string; *ptr; ++ptr) ++len;
e0000162:	842e                	mv	s0,a1
e0000164:	bf61                	j	e00000fc <qprints.constprop.3+0x68>

e0000166 <qprinti.constprop.2>:

static int qprinti(char **out, int i, int b, int sg, int width, int pad, char letbase)
e0000166:	7139                	addi	sp,sp,-64
e0000168:	de06                	sw	ra,60(sp)
e000016a:	dc22                	sw	s0,56(sp)
e000016c:	da26                	sw	s1,52(sp)
  char print_buf[PRINT_BUF_LEN];
  register char *s;
  register int neg = 0, pc = 0;
  unsigned int u = i;

  if (i == 0)
e000016e:	0e050d63          	beqz	a0,e0000268 <qprinti.constprop.2+0x102>
e0000172:	8432                	mv	s0,a2
  unsigned int u = i;
e0000174:	882a                	mv	a6,a0
    print_buf[0] = '0';
    print_buf[1] = '\0';
    return qprints (out, print_buf, width, pad);
  }

  if (sg && b == 10 && i < 0)
e0000176:	c639                	beqz	a2,e00001c4 <qprinti.constprop.2+0x5e>
e0000178:	4629                	li	a2,10
e000017a:	10c58463          	beq	a1,a2,e0000282 <qprinti.constprop.2+0x11c>
    neg = 1;
    u = -i;
  }

  s = print_buf + PRINT_BUF_LEN-1;
  *s = '\0';
e000017e:	020107a3          	sb	zero,47(sp)

  // treat HEX and decimal differently
  if(b == 16) {
e0000182:	4641                	li	a2,16
e0000184:	4401                	li	s0,0
e0000186:	04c59463          	bne	a1,a2,e00001ce <qprinti.constprop.2+0x68>
static int qprinti(char **out, int i, int b, int sg, int width, int pad, char letbase)
e000018a:	02f10513          	addi	a0,sp,47
    // HEX
    while (u) {
      int t = u & 0xF;

      if (t >= 10)
e000018e:	4625                	li	a2,9
        t += letbase - '0' - 10;
e0000190:	fc678793          	addi	a5,a5,-58
      int t = u & 0xF;
e0000194:	00f87593          	andi	a1,a6,15

      *--s = t + '0';
e0000198:	157d                	addi	a0,a0,-1
      u >>= 4;
e000019a:	00485813          	srli	a6,a6,0x4
      if (t >= 10)
e000019e:	00b65363          	ble	a1,a2,e00001a4 <qprinti.constprop.2+0x3e>
        t += letbase - '0' - 10;
e00001a2:	95be                	add	a1,a1,a5
      *--s = t + '0';
e00001a4:	03058593          	addi	a1,a1,48
e00001a8:	00b50023          	sb	a1,0(a0)
    while (u) {
e00001ac:	fe0814e3          	bnez	a6,e0000194 <qprinti.constprop.2+0x2e>
  register int neg = 0, pc = 0;
e00001b0:	4401                	li	s0,0
    else
    {
      *--s = '-';
    }
  }
  return pc + qprints (out, s, width, pad);
e00001b2:	863a                	mv	a2,a4
e00001b4:	85b6                	mv	a1,a3
e00001b6:	3df9                	jal	e0000094 <qprints.constprop.3>
e00001b8:	9522                	add	a0,a0,s0
}
e00001ba:	50f2                	lw	ra,60(sp)
e00001bc:	5462                	lw	s0,56(sp)
e00001be:	54d2                	lw	s1,52(sp)
e00001c0:	6121                	addi	sp,sp,64
e00001c2:	8082                	ret
  *s = '\0';
e00001c4:	020107a3          	sb	zero,47(sp)
  if(b == 16) {
e00001c8:	4641                	li	a2,16
e00001ca:	fcc580e3          	beq	a1,a2,e000018a <qprinti.constprop.2+0x24>
  n = (0x19999999 * n + (n >> 1) + (n >> 3)) >> 28;
e00001ce:	1999a537          	lui	a0,0x1999a
  if(b == 16) {
e00001d2:	02f10493          	addi	s1,sp,47
e00001d6:	00000e97          	auipc	t4,0x0
e00001da:	5aee8e93          	addi	t4,t4,1454 # e0000784 <remu10_table>
  n = (0x19999999 * n + (n >> 1) + (n >> 3)) >> 28;
e00001de:	99950513          	addi	a0,a0,-1639 # 19999999 <tohost+0x19979991>
e00001e2:	02a808b3          	mul	a7,a6,a0
e00001e6:	00185613          	srli	a2,a6,0x1
  q = (n >> 1) + (n >> 2);
e00001ea:	00285793          	srli	a5,a6,0x2
e00001ee:	97b2                	add	a5,a5,a2
  q = q + (q >> 4);
e00001f0:	0047d593          	srli	a1,a5,0x4
e00001f4:	97ae                	add	a5,a5,a1
  q = q + (q >> 8);
e00001f6:	0087d593          	srli	a1,a5,0x8
e00001fa:	97ae                	add	a5,a5,a1
  n = (0x19999999 * n + (n >> 1) + (n >> 3)) >> 28;
e00001fc:	00385313          	srli	t1,a6,0x3
  q = q + (q >> 16);
e0000200:	0107d593          	srli	a1,a5,0x10
  n = (0x19999999 * n + (n >> 1) + (n >> 3)) >> 28;
e0000204:	98b2                	add	a7,a7,a2
e0000206:	989a                	add	a7,a7,t1
  q = q + (q >> 16);
e0000208:	97ae                	add	a5,a5,a1
  q = q >> 3;
e000020a:	838d                	srli	a5,a5,0x3
  n = (0x19999999 * n + (n >> 1) + (n >> 3)) >> 28;
e000020c:	01c8d893          	srli	a7,a7,0x1c
  return remu10_table[n];
e0000210:	98f6                	add	a7,a7,t4
  r = n - q * 10;
e0000212:	00279313          	slli	t1,a5,0x2
      *--s = remu10(u) + '0';
e0000216:	0008ce03          	lbu	t3,0(a7)
  r = n - q * 10;
e000021a:	00f308b3          	add	a7,t1,a5
e000021e:	0886                	slli	a7,a7,0x1
  return q + ((r + 6) >> 4);
e0000220:	0819                	addi	a6,a6,6
e0000222:	41180833          	sub	a6,a6,a7
      *--s = remu10(u) + '0';
e0000226:	14fd                	addi	s1,s1,-1
e0000228:	030e0893          	addi	a7,t3,48
  return q + ((r + 6) >> 4);
e000022c:	00485813          	srli	a6,a6,0x4
      *--s = remu10(u) + '0';
e0000230:	01148023          	sb	a7,0(s1)
  return q + ((r + 6) >> 4);
e0000234:	983e                	add	a6,a6,a5
    while (u) {
e0000236:	fa0816e3          	bnez	a6,e00001e2 <qprinti.constprop.2+0x7c>
  if (neg) {
e000023a:	c831                	beqz	s0,e000028e <qprinti.constprop.2+0x128>
    if( width && (pad & PAD_ZERO) )
e000023c:	ce99                	beqz	a3,e000025a <qprinti.constprop.2+0xf4>
e000023e:	00277793          	andi	a5,a4,2
e0000242:	cf81                	beqz	a5,e000025a <qprinti.constprop.2+0xf4>
e0000244:	02d00513          	li	a0,45
e0000248:	c636                	sw	a3,12(sp)
e000024a:	c43a                	sw	a4,8(sp)
e000024c:	3d25                	jal	e0000084 <qprintchar.part.0>
      --width;
e000024e:	46b2                	lw	a3,12(sp)
e0000250:	8526                	mv	a0,s1
      ++pc;
e0000252:	4405                	li	s0,1
      --width;
e0000254:	16fd                	addi	a3,a3,-1
e0000256:	4722                	lw	a4,8(sp)
e0000258:	bfa9                	j	e00001b2 <qprinti.constprop.2+0x4c>
      *--s = '-';
e000025a:	02d00793          	li	a5,45
e000025e:	fff48513          	addi	a0,s1,-1
e0000262:	fef48fa3          	sb	a5,-1(s1)
e0000266:	b7a9                	j	e00001b0 <qprinti.constprop.2+0x4a>
    return qprints (out, print_buf, width, pad);
e0000268:	0808                	addi	a0,sp,16
    print_buf[0] = '0';
e000026a:	03000793          	li	a5,48
    return qprints (out, print_buf, width, pad);
e000026e:	863a                	mv	a2,a4
e0000270:	85b6                	mv	a1,a3
    print_buf[0] = '0';
e0000272:	00f11823          	sh	a5,16(sp)
    return qprints (out, print_buf, width, pad);
e0000276:	3d39                	jal	e0000094 <qprints.constprop.3>
}
e0000278:	50f2                	lw	ra,60(sp)
e000027a:	5462                	lw	s0,56(sp)
e000027c:	54d2                	lw	s1,52(sp)
e000027e:	6121                	addi	sp,sp,64
e0000280:	8082                	ret
  if (sg && b == 10 && i < 0)
e0000282:	00054863          	bltz	a0,e0000292 <qprinti.constprop.2+0x12c>
  *s = '\0';
e0000286:	020107a3          	sb	zero,47(sp)
  register int neg = 0, pc = 0;
e000028a:	4401                	li	s0,0
e000028c:	b789                	j	e00001ce <qprinti.constprop.2+0x68>
      *--s = remu10(u) + '0';
e000028e:	8526                	mv	a0,s1
e0000290:	b70d                	j	e00001b2 <qprinti.constprop.2+0x4c>
    u = -i;
e0000292:	40a00833          	neg	a6,a0
  *s = '\0';
e0000296:	020107a3          	sb	zero,47(sp)
e000029a:	bf15                	j	e00001ce <qprinti.constprop.2+0x68>

e000029c <uart_set_cfg>:
  *(volatile unsigned int*)(UART_REG_LCR) = 0x83; //sets 8N1 and set DLAB to 1
e000029c:	400007b7          	lui	a5,0x40000
e00002a0:	08300713          	li	a4,131
e00002a4:	c7d8                	sw	a4,12(a5)
  *(volatile unsigned int*)(UART_REG_DLM) = (clk_counter >> 8) & 0xFF;
e00002a6:	0085d713          	srli	a4,a1,0x8
e00002aa:	c3d8                	sw	a4,4(a5)
  *(volatile unsigned int*)(UART_REG_DLL) =  clk_counter       & 0xFF;
e00002ac:	0ff5f593          	andi	a1,a1,255
e00002b0:	c38c                	sw	a1,0(a5)
  *(volatile unsigned int*)(UART_REG_FCR) = 0xA7; //enables 16byte FIFO and clear FIFOs
e00002b2:	0a700713          	li	a4,167
e00002b6:	c798                	sw	a4,8(a5)
  *(volatile unsigned int*)(UART_REG_LCR) = 0x03; //sets 8N1 and set DLAB to 0
e00002b8:	470d                	li	a4,3
e00002ba:	c7d8                	sw	a4,12(a5)
  *(volatile unsigned int*)(UART_REG_IER) = ((*(volatile unsigned int*)(UART_REG_IER)) & 0xF0) | 0x02; // set IER (interrupt enable register) on UART
e00002bc:	43d8                	lw	a4,4(a5)
e00002be:	0f077713          	andi	a4,a4,240
e00002c2:	00276713          	ori	a4,a4,2
e00002c6:	c3d8                	sw	a4,4(a5)
}
e00002c8:	8082                	ret

e00002ca <uart_send>:
    while( (*(volatile unsigned int*)(UART_REG_LSR) & 0x20) == 0);
e00002ca:	400006b7          	lui	a3,0x40000
  while(len > 0) {
e00002ce:	c59d                	beqz	a1,e00002fc <uart_send+0x32>
    while( (*(volatile unsigned int*)(UART_REG_LSR) & 0x20) == 0);
e00002d0:	4adc                	lw	a5,20(a3)
e00002d2:	0207f793          	andi	a5,a5,32
e00002d6:	dfed                	beqz	a5,e00002d0 <uart_send+0x6>
      *(volatile unsigned int*)(UART_REG_THR) = *str++;
e00002d8:	00054703          	lbu	a4,0(a0)
e00002dc:	00150793          	addi	a5,a0,1
      len--;
e00002e0:	15fd                	addi	a1,a1,-1
      *(volatile unsigned int*)(UART_REG_THR) = *str++;
e00002e2:	c298                	sw	a4,0(a3)
e00002e4:	04050513          	addi	a0,a0,64
e00002e8:	a039                	j	e00002f6 <uart_send+0x2c>
e00002ea:	fff7c703          	lbu	a4,-1(a5) # 3fffffff <tohost+0x3ffdfff7>
      len--;
e00002ee:	15fd                	addi	a1,a1,-1
      *(volatile unsigned int*)(UART_REG_THR) = *str++;
e00002f0:	c298                	sw	a4,0(a3)
    for(i = 0; (i < UART_FIFO_DEPTH) && (len > 0); i++) {
e00002f2:	00a78663          	beq	a5,a0,e00002fe <uart_send+0x34>
      *(volatile unsigned int*)(UART_REG_THR) = *str++;
e00002f6:	0785                	addi	a5,a5,1
    for(i = 0; (i < UART_FIFO_DEPTH) && (len > 0); i++) {
e00002f8:	f9ed                	bnez	a1,e00002ea <uart_send+0x20>
e00002fa:	8082                	ret
}
e00002fc:	8082                	ret
      *(volatile unsigned int*)(UART_REG_THR) = *str++;
e00002fe:	853e                	mv	a0,a5
e0000300:	b7f9                	j	e00002ce <uart_send+0x4>

e0000302 <uart_getchar>:
  while((*((volatile int*)UART_REG_LSR) & 0x1) != 0x1);
e0000302:	40000737          	lui	a4,0x40000
e0000306:	4b5c                	lw	a5,20(a4)
e0000308:	8b85                	andi	a5,a5,1
e000030a:	dff5                	beqz	a5,e0000306 <uart_getchar+0x4>
  return *(volatile int*)UART_REG_RBR;
e000030c:	4308                	lw	a0,0(a4)
}
e000030e:	0ff57513          	andi	a0,a0,255
e0000312:	8082                	ret

e0000314 <uart_sendchar>:
  while( (*(volatile unsigned int*)(UART_REG_LSR) & 0x20) == 0);
e0000314:	40000737          	lui	a4,0x40000
e0000318:	4b5c                	lw	a5,20(a4)
e000031a:	0207f793          	andi	a5,a5,32
e000031e:	dfed                	beqz	a5,e0000318 <uart_sendchar+0x4>
  *(volatile unsigned int*)(UART_REG_THR) = c;
e0000320:	c308                	sw	a0,0(a4)
}
e0000322:	8082                	ret

e0000324 <uart_wait_tx_done>:
  while( (*(volatile unsigned int*)(UART_REG_LSR) & 0x40) == 0);
e0000324:	40000737          	lui	a4,0x40000
e0000328:	4b5c                	lw	a5,20(a4)
e000032a:	0407f793          	andi	a5,a5,64
e000032e:	dfed                	beqz	a5,e0000328 <uart_wait_tx_done+0x4>
}
e0000330:	8082                	ret

e0000332 <putchar>:
  while( (*(volatile unsigned int*)(UART_REG_LSR) & 0x20) == 0);
e0000332:	40000737          	lui	a4,0x40000
e0000336:	4b5c                	lw	a5,20(a4)
e0000338:	0207f793          	andi	a5,a5,32
e000033c:	dfed                	beqz	a5,e0000336 <putchar+0x4>
  *(volatile unsigned int*)(UART_REG_THR) = c;
e000033e:	0ff57793          	andi	a5,a0,255
e0000342:	c31c                	sw	a5,0(a4)
}
e0000344:	8082                	ret

e0000346 <printf>:

  return pc;
}

int printf(const char *format, ...)
{
e0000346:	711d                	addi	sp,sp,-96
e0000348:	d452                	sw	s4,40(sp)
e000034a:	de06                	sw	ra,60(sp)
e000034c:	dc22                	sw	s0,56(sp)
e000034e:	da26                	sw	s1,52(sp)
e0000350:	d84a                	sw	s2,48(sp)
e0000352:	d64e                	sw	s3,44(sp)
e0000354:	d256                	sw	s5,36(sp)
e0000356:	d05a                	sw	s6,32(sp)
e0000358:	ce5e                	sw	s7,28(sp)
e000035a:	cc62                	sw	s8,24(sp)
e000035c:	ca66                	sw	s9,20(sp)
e000035e:	c86a                	sw	s10,16(sp)
e0000360:	c2ae                	sw	a1,68(sp)
e0000362:	c4b2                	sw	a2,72(sp)
e0000364:	c6b6                	sw	a3,76(sp)
e0000366:	c8ba                	sw	a4,80(sp)
e0000368:	cabe                	sw	a5,84(sp)
e000036a:	ccc2                	sw	a6,88(sp)
e000036c:	cec6                	sw	a7,92(sp)
  for (; *format != 0; ++format)
e000036e:	00054783          	lbu	a5,0(a0)
  int pc;
  va_list va;

  va_start(va, format);
e0000372:	04410a13          	addi	s4,sp,68
e0000376:	c652                	sw	s4,12(sp)
  for (; *format != 0; ++format)
e0000378:	c3f5                	beqz	a5,e000045c <printf+0x116>
e000037a:	8caa                	mv	s9,a0
  register int pc = 0;
e000037c:	4d01                	li	s10,0
    if (*format == '%')
e000037e:	02500493          	li	s1,37
      if (*format == '-')
e0000382:	02d00b13          	li	s6,45
      while (*format == '0')
e0000386:	03000993          	li	s3,48
      for ( ; *format >= '0' && *format <= '9'; ++format) {
e000038a:	4925                	li	s2,9
      if( *format == 's' ) {
e000038c:	07300a93          	li	s5,115
      if( *format == 'd' ) {
e0000390:	06400b93          	li	s7,100
        pc += qprints (out, s?s:"(null)", width, pad);
e0000394:	00000c17          	auipc	s8,0x0
e0000398:	3acc0c13          	addi	s8,s8,940 # e0000740 <main+0x64>
e000039c:	a819                	j	e00003b2 <printf+0x6c>
    if (*format == '%')
e000039e:	87a2                	mv	a5,s0
e00003a0:	000cc503          	lbu	a0,0(s9)
e00003a4:	8466                	mv	s0,s9
e00003a6:	8cbe                	mv	s9,a5
e00003a8:	39f1                	jal	e0000084 <qprintchar.part.0>
      ++pc;
e00003aa:	0d05                	addi	s10,s10,1
  for (; *format != 0; ++format)
e00003ac:	00144783          	lbu	a5,1(s0)
e00003b0:	c7dd                	beqz	a5,e000045e <printf+0x118>
e00003b2:	001c8413          	addi	s0,s9,1
    if (*format == '%')
e00003b6:	fe9794e3          	bne	a5,s1,e000039e <printf+0x58>
      if (*format == '\0') break;
e00003ba:	001cc503          	lbu	a0,1(s9)
e00003be:	c145                	beqz	a0,e000045e <printf+0x118>
      if (*format == '%') goto out;
e00003c0:	00951463          	bne	a0,s1,e00003c8 <printf+0x82>
e00003c4:	0c89                	addi	s9,s9,2
e00003c6:	b7cd                	j	e00003a8 <printf+0x62>
      width = pad = 0;
e00003c8:	4701                	li	a4,0
      if (*format == '-')
e00003ca:	09650363          	beq	a0,s6,e0000450 <printf+0x10a>
      while (*format == '0')
e00003ce:	01351963          	bne	a0,s3,e00003e0 <printf+0x9a>
        ++format;
e00003d2:	0405                	addi	s0,s0,1
      while (*format == '0')
e00003d4:	00044503          	lbu	a0,0(s0)
        pad |= PAD_ZERO;
e00003d8:	00276713          	ori	a4,a4,2
      while (*format == '0')
e00003dc:	ff350be3          	beq	a0,s3,e00003d2 <printf+0x8c>
      for ( ; *format >= '0' && *format <= '9'; ++format) {
e00003e0:	fd050793          	addi	a5,a0,-48
e00003e4:	0ff7f693          	andi	a3,a5,255
      width = pad = 0;
e00003e8:	4581                	li	a1,0
      for ( ; *format >= '0' && *format <= '9'; ++format) {
e00003ea:	02d96163          	bltu	s2,a3,e000040c <printf+0xc6>
e00003ee:	0405                	addi	s0,s0,1
        width *= 10;
e00003f0:	00259693          	slli	a3,a1,0x2
      for ( ; *format >= '0' && *format <= '9'; ++format) {
e00003f4:	00044503          	lbu	a0,0(s0)
        width *= 10;
e00003f8:	96ae                	add	a3,a3,a1
e00003fa:	0686                	slli	a3,a3,0x1
        width += *format - '0';
e00003fc:	00d785b3          	add	a1,a5,a3
      for ( ; *format >= '0' && *format <= '9'; ++format) {
e0000400:	fd050793          	addi	a5,a0,-48
e0000404:	0ff7f693          	andi	a3,a5,255
e0000408:	fed973e3          	bleu	a3,s2,e00003ee <printf+0xa8>
e000040c:	00140c93          	addi	s9,s0,1
      if( *format == 's' ) {
e0000410:	07550663          	beq	a0,s5,e000047c <printf+0x136>
      if( *format == 'd' ) {
e0000414:	07750c63          	beq	a0,s7,e000048c <printf+0x146>
      if( *format == 'u' ) {
e0000418:	07500793          	li	a5,117
e000041c:	08f50363          	beq	a0,a5,e00004a2 <printf+0x15c>
      if( *format == 'x' ) {
e0000420:	07800793          	li	a5,120
e0000424:	08f50a63          	beq	a0,a5,e00004b8 <printf+0x172>
      if( *format == 'X' ) {
e0000428:	05800793          	li	a5,88
e000042c:	0af50163          	beq	a0,a5,e00004ce <printf+0x188>
      if( *format == 'c' ) {
e0000430:	06300793          	li	a5,99
e0000434:	f6f51ce3          	bne	a0,a5,e00003ac <printf+0x66>
        scr[0] = va_arg(va, int);
e0000438:	000a2783          	lw	a5,0(s4)
        pc += qprints (out, scr, width, pad);
e000043c:	863a                	mv	a2,a4
e000043e:	0028                	addi	a0,sp,8
        scr[0] = va_arg(va, int);
e0000440:	00f10423          	sb	a5,8(sp)
        scr[1] = '\0';
e0000444:	000104a3          	sb	zero,9(sp)
        pc += qprints (out, scr, width, pad);
e0000448:	31b1                	jal	e0000094 <qprints.constprop.3>
        scr[0] = va_arg(va, int);
e000044a:	0a11                	addi	s4,s4,4
        pc += qprints (out, scr, width, pad);
e000044c:	9d2a                	add	s10,s10,a0
e000044e:	bfb9                	j	e00003ac <printf+0x66>
e0000450:	002cc503          	lbu	a0,2(s9)
        ++format;
e0000454:	002c8413          	addi	s0,s9,2
        pad = PAD_RIGHT;
e0000458:	4705                	li	a4,1
e000045a:	bf95                	j	e00003ce <printf+0x88>
  register int pc = 0;
e000045c:	4d01                	li	s10,0

  va_end(va);

  return pc;

}
e000045e:	50f2                	lw	ra,60(sp)
e0000460:	5462                	lw	s0,56(sp)
e0000462:	856a                	mv	a0,s10
e0000464:	54d2                	lw	s1,52(sp)
e0000466:	5942                	lw	s2,48(sp)
e0000468:	59b2                	lw	s3,44(sp)
e000046a:	5a22                	lw	s4,40(sp)
e000046c:	5a92                	lw	s5,36(sp)
e000046e:	5b02                	lw	s6,32(sp)
e0000470:	4bf2                	lw	s7,28(sp)
e0000472:	4c62                	lw	s8,24(sp)
e0000474:	4cd2                	lw	s9,20(sp)
e0000476:	4d42                	lw	s10,16(sp)
e0000478:	6125                	addi	sp,sp,96
e000047a:	8082                	ret
        register char *s = va_arg(va, char*);
e000047c:	000a2503          	lw	a0,0(s4)
e0000480:	0a11                	addi	s4,s4,4
        pc += qprints (out, s?s:"(null)", width, pad);
e0000482:	c939                	beqz	a0,e00004d8 <printf+0x192>
e0000484:	863a                	mv	a2,a4
e0000486:	3139                	jal	e0000094 <qprints.constprop.3>
e0000488:	9d2a                	add	s10,s10,a0
e000048a:	b70d                	j	e00003ac <printf+0x66>
        pc += qprinti (out, va_arg(va, int), 10, 1, width, pad, 'a');
e000048c:	000a2503          	lw	a0,0(s4)
e0000490:	86ae                	mv	a3,a1
e0000492:	06100793          	li	a5,97
e0000496:	4605                	li	a2,1
e0000498:	45a9                	li	a1,10
e000049a:	31f1                	jal	e0000166 <qprinti.constprop.2>
e000049c:	0a11                	addi	s4,s4,4
e000049e:	9d2a                	add	s10,s10,a0
e00004a0:	b731                	j	e00003ac <printf+0x66>
        pc += qprinti (out, va_arg(va, unsigned int), 10, 0, width, pad, 'a');
e00004a2:	000a2503          	lw	a0,0(s4)
e00004a6:	86ae                	mv	a3,a1
e00004a8:	06100793          	li	a5,97
e00004ac:	4601                	li	a2,0
e00004ae:	45a9                	li	a1,10
e00004b0:	395d                	jal	e0000166 <qprinti.constprop.2>
e00004b2:	0a11                	addi	s4,s4,4
e00004b4:	9d2a                	add	s10,s10,a0
e00004b6:	bddd                	j	e00003ac <printf+0x66>
        pc += qprinti (out, va_arg(va, uint32_t), 16, 0, width, pad, 'a');
e00004b8:	000a2503          	lw	a0,0(s4)
e00004bc:	06100793          	li	a5,97
        pc += qprinti (out, va_arg(va, uint32_t), 16, 0, width, pad, 'A');
e00004c0:	86ae                	mv	a3,a1
e00004c2:	4601                	li	a2,0
e00004c4:	45c1                	li	a1,16
e00004c6:	3145                	jal	e0000166 <qprinti.constprop.2>
e00004c8:	0a11                	addi	s4,s4,4
e00004ca:	9d2a                	add	s10,s10,a0
e00004cc:	b5c5                	j	e00003ac <printf+0x66>
e00004ce:	000a2503          	lw	a0,0(s4)
e00004d2:	04100793          	li	a5,65
e00004d6:	b7ed                	j	e00004c0 <printf+0x17a>
        pc += qprints (out, s?s:"(null)", width, pad);
e00004d8:	8562                	mv	a0,s8
e00004da:	b76d                	j	e0000484 <printf+0x13e>

e00004dc <simple_exc_handler>:
  printf("EXCEPTION!!!\r\n");
e00004dc:	00000517          	auipc	a0,0x0
e00004e0:	26c50513          	addi	a0,a0,620 # e0000748 <main+0x6c>
e00004e4:	b58d                	j	e0000346 <printf>

e00004e6 <puts>:

int puts(const char *s)
{
  int i=0;

  while(s[i] != '\0')
e00004e6:	00054603          	lbu	a2,0(a0)
e00004ea:	ca0d                	beqz	a2,e000051c <puts+0x36>
e00004ec:	00150693          	addi	a3,a0,1
  while( (*(volatile unsigned int*)(UART_REG_LSR) & 0x20) == 0);
e00004f0:	40000737          	lui	a4,0x40000
  int i=0;
e00004f4:	4501                	li	a0,0
    putchar(s[i++]);
e00004f6:	0505                	addi	a0,a0,1
  while( (*(volatile unsigned int*)(UART_REG_LSR) & 0x20) == 0);
e00004f8:	4b5c                	lw	a5,20(a4)
e00004fa:	0207f793          	andi	a5,a5,32
e00004fe:	dfed                	beqz	a5,e00004f8 <puts+0x12>
  *(volatile unsigned int*)(UART_REG_THR) = c;
e0000500:	c310                	sw	a2,0(a4)
e0000502:	0685                	addi	a3,a3,1
  while(s[i] != '\0')
e0000504:	fff6c603          	lbu	a2,-1(a3) # 3fffffff <tohost+0x3ffdfff7>
e0000508:	f67d                	bnez	a2,e00004f6 <puts+0x10>
  while( (*(volatile unsigned int*)(UART_REG_LSR) & 0x20) == 0);
e000050a:	40000737          	lui	a4,0x40000
e000050e:	4b5c                	lw	a5,20(a4)
e0000510:	0207f793          	andi	a5,a5,32
e0000514:	dfed                	beqz	a5,e000050e <puts+0x28>
  *(volatile unsigned int*)(UART_REG_THR) = c;
e0000516:	47a9                	li	a5,10
e0000518:	c31c                	sw	a5,0(a4)

  putchar('\n');

  return i;
}
e000051a:	8082                	ret
  int i=0;
e000051c:	4501                	li	a0,0
e000051e:	b7f5                	j	e000050a <puts+0x24>

e0000520 <external_irq_handler>:
 * External IRQ handler
 * ===========================================================================*/

void 
external_irq_handler(void)
{
e0000520:	1101                	addi	sp,sp,-32
e0000522:	c43e                	sw	a5,8(sp)
	*MAILBOX_REG_DOORBELL = 0;
e0000524:	104047b7          	lui	a5,0x10404
{
e0000528:	c836                	sw	a3,16(sp)
e000052a:	c63a                	sw	a4,12(sp)
e000052c:	ce2a                	sw	a0,28(sp)
	return (MAILBOX_REG_DATA[0] & 0x00000df7) == 0x000000e7;
e000052e:	4398                	lw	a4,0(a5)
{
e0000530:	cc2e                	sw	a1,24(sp)
e0000532:	ca32                	sw	a2,20(sp)
	// Shadow Stack.
	uint64_t address = 0x0;
	bool     fault   = false;

	// Claim the IRQ to serve the interrupt request.
	(void)*IRQ_COMPLETE;
e0000534:	c82006b7          	lui	a3,0xc8200
e0000538:	42d4                	lw	a3,4(a3)
	*MAILBOX_REG_DOORBELL = 0;
e000053a:	0207a023          	sw	zero,32(a5) # 10404020 <tohost+0x103e4018>
	return (MAILBOX_REG_DATA[0] & 0x00000df7) == 0x000000e7;
e000053e:	6785                	lui	a5,0x1
e0000540:	df778793          	addi	a5,a5,-521 # df7 <_min_stack-0x1209>
e0000544:	8ff9                	and	a5,a5,a4

	mailbox_clear_doorbell();
	if (mailbox_is_call()) {
e0000546:	0e700693          	li	a3,231
e000054a:	06d78e63          	beq	a5,a3,e00005c6 <external_irq_handler+0xa6>
	return (MAILBOX_REG_DATA[0] & 0x000d807f) == 0x00008067;
e000054e:	000d87b7          	lui	a5,0xd8
e0000552:	07f78793          	addi	a5,a5,127 # d807f <tohost+0xb8077>
		if (shadow_stack_is_full()) {
			shadow_stack_save();
		}
		address = mailbox_get_pc_src();
		shadow_stack_push(address);
	} else if (mailbox_is_return()) {
e0000556:	66a1                	lui	a3,0x8
	return (MAILBOX_REG_DATA[0] & 0x000d807f) == 0x00008067;
e0000558:	8f7d                	and	a4,a4,a5
	} else if (mailbox_is_return()) {
e000055a:	06768693          	addi	a3,a3,103 # 8067 <_stack_len+0x67>
e000055e:	4781                	li	a5,0
e0000560:	02d70563          	beq	a4,a3,e000058a <external_irq_handler+0x6a>
	MAILBOX_REG_DATA[0] = data;
e0000564:	10404737          	lui	a4,0x10404
e0000568:	c31c                	sw	a5,0(a4)
	*MAILBOX_REG_COMPLETION = 1;
e000056a:	4785                	li	a5,1
e000056c:	d35c                	sw	a5,36(a4)
	}
	mailbox_complete(fault);

	// Complete interrupt writing the interrupt ID to the PLIC Completion
	// register.
	*IRQ_COMPLETE = MAILBOX_IRQ_ID;
e000056e:	c82007b7          	lui	a5,0xc8200
e0000572:	04400713          	li	a4,68
e0000576:	c3d8                	sw	a4,4(a5)
}
e0000578:	4572                	lw	a0,28(sp)
e000057a:	45e2                	lw	a1,24(sp)
e000057c:	4652                	lw	a2,20(sp)
e000057e:	46c2                	lw	a3,16(sp)
e0000580:	4732                	lw	a4,12(sp)
e0000582:	47a2                	lw	a5,8(sp)
e0000584:	6105                	addi	sp,sp,32
e0000586:	30200073          	mret
	return shadow_stack.ptr == shadow_stack.base;
e000058a:	00000717          	auipc	a4,0x0
e000058e:	20a70713          	addi	a4,a4,522 # e0000794 <shadow_stack>
e0000592:	471c                	lw	a5,8(a4)
		if (shadow_stack_is_empty()) {
e0000594:	4314                	lw	a3,0(a4)
e0000596:	08d78663          	beq	a5,a3,e0000622 <external_irq_handler+0x102>
e000059a:	ff878513          	addi	a0,a5,-8 # c81ffff8 <pulp__FC+0xc81ffff9>
	return *(ssptr_t*)(MAILBOX_REG_DATA + 1 + sizeof(ssptr_t)/sizeof(uint32_t));
e000059e:	10404737          	lui	a4,0x10404
e00005a2:	474c                	lw	a1,12(a4)
e00005a4:	4b10                	lw	a2,16(a4)
	fault = !(*((ssptr_t*)shadow_stack.ptr) == address);
e00005a6:	ffc7a683          	lw	a3,-4(a5)
e00005aa:	ff87a703          	lw	a4,-8(a5)
	shadow_stack.ptr -= sizeof(ssptr_t) / sizeof(uint32_t);
e00005ae:	00000797          	auipc	a5,0x0
e00005b2:	1ea7a723          	sw	a0,494(a5) # e000079c <shadow_stack+0x8>
	fault = !(*((ssptr_t*)shadow_stack.ptr) == address);
e00005b6:	00b747b3          	xor	a5,a4,a1
e00005ba:	00c6c733          	xor	a4,a3,a2
e00005be:	8fd9                	or	a5,a5,a4
e00005c0:	00f037b3          	snez	a5,a5
e00005c4:	b745                	j	e0000564 <external_irq_handler+0x44>
	return shadow_stack.ptr == shadow_stack.limit;
e00005c6:	00000797          	auipc	a5,0x0
e00005ca:	1ce78793          	addi	a5,a5,462 # e0000794 <shadow_stack>
e00005ce:	4798                	lw	a4,8(a5)
		if (shadow_stack_is_full()) {
e00005d0:	43d4                	lw	a3,4(a5)
e00005d2:	02e68063          	beq	a3,a4,e00005f2 <external_irq_handler+0xd2>
e00005d6:	00870693          	addi	a3,a4,8 # 10404008 <tohost+0x103e4000>
	return *(ssptr_t*)(MAILBOX_REG_DATA + 1);
e00005da:	104047b7          	lui	a5,0x10404
e00005de:	43c8                	lw	a0,4(a5)
e00005e0:	478c                	lw	a1,8(a5)
	shadow_stack.ptr += sizeof(ssptr_t) / sizeof(uint32_t);
e00005e2:	4781                	li	a5,0
	*((ssptr_t*)shadow_stack.ptr) = address;
e00005e4:	c308                	sw	a0,0(a4)
e00005e6:	c34c                	sw	a1,4(a4)
	shadow_stack.ptr += sizeof(ssptr_t) / sizeof(uint32_t);
e00005e8:	00000717          	auipc	a4,0x0
e00005ec:	1ad72a23          	sw	a3,436(a4) # e000079c <shadow_stack+0x8>
e00005f0:	bf95                	j	e0000564 <external_irq_handler+0x44>
		shadow_stack.heap[i] = shadow_stack.base[i];
e00005f2:	47cc                	lw	a1,12(a5)
e00005f4:	439c                	lw	a5,0(a5)
e00005f6:	872e                	mv	a4,a1
e00005f8:	10078613          	addi	a2,a5,256 # 10404100 <tohost+0x103e40f8>
e00005fc:	4394                	lw	a3,0(a5)
e00005fe:	0711                	addi	a4,a4,4
e0000600:	0791                	addi	a5,a5,4
e0000602:	fed72e23          	sw	a3,-4(a4)
	for (i=0; i<size; i++) {
e0000606:	fec79be3          	bne	a5,a2,e00005fc <external_irq_handler+0xdc>
	shadow_stack.heap += size;
e000060a:	10058593          	addi	a1,a1,256
e000060e:	00000717          	auipc	a4,0x0
e0000612:	18b72923          	sw	a1,402(a4) # e00007a0 <shadow_stack+0xc>
e0000616:	e00106b7          	lui	a3,0xe0010
e000061a:	06a1                	addi	a3,a3,8
e000061c:	e0010737          	lui	a4,0xe0010
e0000620:	bf6d                	j	e00005da <external_irq_handler+0xba>
		shadow_stack.base[i] = (shadow_stack.heap - i - 1)[i];
e0000622:	4750                	lw	a2,12(a4)
e0000624:	400006b7          	lui	a3,0x40000
e0000628:	10078513          	addi	a0,a5,256
e000062c:	16fd                	addi	a3,a3,-1
e000062e:	400005b7          	lui	a1,0x40000
e0000632:	00269713          	slli	a4,a3,0x2
e0000636:	9732                	add	a4,a4,a2
e0000638:	4318                	lw	a4,0(a4)
e000063a:	0791                	addi	a5,a5,4
e000063c:	96ae                	add	a3,a3,a1
e000063e:	fee7ae23          	sw	a4,-4(a5)
	for (i=0; i<size; i++) {
e0000642:	fef518e3          	bne	a0,a5,e0000632 <external_irq_handler+0x112>
	shadow_stack.heap -= size;
e0000646:	e00107b7          	lui	a5,0xe0010
e000064a:	f0060613          	addi	a2,a2,-256
e000064e:	0f878513          	addi	a0,a5,248 # e00100f8 <pulp__FC+0xe00100f9>
e0000652:	00000717          	auipc	a4,0x0
e0000656:	14c72723          	sw	a2,334(a4) # e00007a0 <shadow_stack+0xc>
e000065a:	10078793          	addi	a5,a5,256
e000065e:	b781                	j	e000059e <external_irq_handler+0x7e>

e0000660 <default_exc_handler>:
  jal x0, sleep_loop //exc handler
e0000660:	0760006f          	j	e00006d6 <sleep_loop>

e0000664 <reset_handler>:
  mv  x1, x0
e0000664:	00000093          	li	ra,0
  mv  x2, x1
e0000668:	8106                	mv	sp,ra
  mv  x3, x1
e000066a:	8186                	mv	gp,ra
  mv  x4, x1
e000066c:	8206                	mv	tp,ra
  mv  x5, x1
e000066e:	8286                	mv	t0,ra
  mv  x6, x1
e0000670:	8306                	mv	t1,ra
  mv  x7, x1
e0000672:	8386                	mv	t2,ra
  mv  x8, x1
e0000674:	8406                	mv	s0,ra
  mv  x9, x1
e0000676:	8486                	mv	s1,ra
  mv x10, x1
e0000678:	8506                	mv	a0,ra
  mv x11, x1
e000067a:	8586                	mv	a1,ra
  mv x12, x1
e000067c:	8606                	mv	a2,ra
  mv x13, x1
e000067e:	8686                	mv	a3,ra
  mv x14, x1
e0000680:	8706                	mv	a4,ra
  mv x15, x1
e0000682:	8786                	mv	a5,ra
  mv x16, x1
e0000684:	8806                	mv	a6,ra
  mv x17, x1
e0000686:	8886                	mv	a7,ra
  mv x18, x1
e0000688:	8906                	mv	s2,ra
  mv x19, x1
e000068a:	8986                	mv	s3,ra
  mv x20, x1
e000068c:	8a06                	mv	s4,ra
  mv x21, x1
e000068e:	8a86                	mv	s5,ra
  mv x22, x1
e0000690:	8b06                	mv	s6,ra
  mv x23, x1
e0000692:	8b86                	mv	s7,ra
  mv x24, x1
e0000694:	8c06                	mv	s8,ra
  mv x25, x1
e0000696:	8c86                	mv	s9,ra
  mv x26, x1
e0000698:	8d06                	mv	s10,ra
  mv x27, x1
e000069a:	8d86                	mv	s11,ra
  mv x28, x1
e000069c:	8e06                	mv	t3,ra
  mv x29, x1
e000069e:	8e86                	mv	t4,ra
  mv x30, x1
e00006a0:	8f06                	mv	t5,ra
  mv x31, x1
e00006a2:	8f86                	mv	t6,ra
  la   x2, _stack_start
e00006a4:	00010117          	auipc	sp,0x10
e00006a8:	95c10113          	addi	sp,sp,-1700 # e0010000 <_stack_start>

e00006ac <_start>:
  la x26, _bss_start
e00006ac:	00000d17          	auipc	s10,0x0
e00006b0:	0f8d0d13          	addi	s10,s10,248 # e00007a4 <_bss_end>
  la x27, _bss_end
e00006b4:	00000d97          	auipc	s11,0x0
e00006b8:	0f0d8d93          	addi	s11,s11,240 # e00007a4 <_bss_end>
  bge x26, x27, zero_loop_end
e00006bc:	01bd5763          	ble	s11,s10,e00006ca <main_entry>

e00006c0 <zero_loop>:
  sw x0, 0(x26)
e00006c0:	000d2023          	sw	zero,0(s10)
  addi x26, x26, 4
e00006c4:	0d11                	addi	s10,s10,4
  ble x26, x27, zero_loop
e00006c6:	ffaddde3          	ble	s10,s11,e00006c0 <zero_loop>

e00006ca <main_entry>:
  addi x10, x0, 0
e00006ca:	00000513          	li	a0,0
  addi x11, x0, 0
e00006ce:	00000593          	li	a1,0
  jal x1, main
e00006d2:	00a000ef          	jal	ra,e00006dc <main>

e00006d6 <sleep_loop>:
  wfi
e00006d6:	10500073          	wfi
  j sleep_loop
e00006da:	bff5                	j	e00006d6 <sleep_loop>

e00006dc <main>:
 * Main
 * ===========================================================================*/

int 
main(int argc, char **argv)
{
e00006dc:	1141                	addi	sp,sp,-16
#else
	//set_flls();
	int baud_rate = 115200;
	int test_freq = 100000000;
#endif
	uart_set_cfg(
e00006de:	45ed                	li	a1,27
e00006e0:	4501                	li	a0,0
{
e00006e2:	c606                	sw	ra,12(sp)
	uart_set_cfg(
e00006e4:	3e65                	jal	e000029c <uart_set_cfg>
		0,
		(test_freq/baud_rate) >> 4
	);

	printf("[IBEX] Shadow stack, 64 bit, 1 ISR, call\n");
e00006e6:	00000517          	auipc	a0,0x0
e00006ea:	07250513          	addi	a0,a0,114 # e0000758 <main+0x7c>
e00006ee:	39a1                	jal	e0000346 <printf>
	uart_wait_tx_done();
e00006f0:	3915                	jal	e0000324 <uart_wait_tx_done>
	uint32_t          *ptr       = NULL;
	
	// Initialize the shadow stack memory content. This is required to run
	// the tests on QuestaSim, otherwise reading the OpenTitan SRAM returns
	// 'X' and the simulation crashes.
	ptr = SHADOWSTACK_REG_BASE;
e00006f2:	e00107b7          	lui	a5,0xe0010
	while (ptr != SHADOWSTACK_REG_LIMIT) {
e00006f6:	10078713          	addi	a4,a5,256 # e0010100 <pulp__FC+0xe0010101>
		*ptr = 0;
e00006fa:	0007a023          	sw	zero,0(a5)
		ptr += 1;
e00006fe:	0791                	addi	a5,a5,4
	while (ptr != SHADOWSTACK_REG_LIMIT) {
e0000700:	fee79de3          	bne	a5,a4,e00006fa <main+0x1e>
	}

	// Set the Machine Trap-Vector base address to 0xe0000000 and configure the
	// core to serve interrupt in vectorized mode.
	val = 0xe0000001;
	asm volatile("csrw mtvec, %0\n" : : "r"(val));
e0000704:	e00007b7          	lui	a5,0xe0000
e0000708:	0785                	addi	a5,a5,1
e000070a:	30579073          	csrw	mtvec,a5

	// Enable global and external interrupts on IBEX.
	val = 0x00001808;
	asm volatile("csrw  mstatus, %0\n" : : "r"(val));
e000070e:	6789                	lui	a5,0x2
e0000710:	80878793          	addi	a5,a5,-2040 # 1808 <_min_stack-0x7f8>
e0000714:	30079073          	csrw	mstatus,a5
	val = 0x00000800;
	asm volatile("csrw  mie, %0\n"     : : "r"(val));
e0000718:	6785                	lui	a5,0x1
e000071a:	80078793          	addi	a5,a5,-2048 # 800 <_min_stack-0x1800>
e000071e:	30479073          	csrw	0x304,a5

	// Configure PLIC to enable MailBox interrupt and setting its priority to 1.
	*plic_prio = 1;
e0000722:	c80007b7          	lui	a5,0xc8000
e0000726:	4705                	li	a4,1
e0000728:	10e7a823          	sw	a4,272(a5) # c8000110 <pulp__FC+0xc8000111>
	*plic_en = 0x00000010;
e000072c:	c80027b7          	lui	a5,0xc8002
e0000730:	4741                	li	a4,16
e0000732:	c798                	sw	a4,8(a5)

	// React to CVA6 command executing the `external_irq_handler` function.
	while(1) {
		asm volatile ("wfi");
e0000734:	10500073          	wfi
e0000738:	10500073          	wfi
e000073c:	bfe5                	j	e0000734 <main+0x58>

Disassembly of section .Pulp_Chip.Info:

00000000 <.Pulp_Chip.Info>:
   0:	000a                	0xa
   2:	0000                	unimp
   4:	0038                	addi	a4,sp,8
   6:	0000                	unimp
   8:	0001                	nop
   a:	0000                	unimp
   c:	7550                	flw	fa2,44(a0)
   e:	706c                	flw	fa1,100(s0)
  10:	495f 666e 006f      	0x6f666e495f
  16:	70696863          	bltu	s2,t1,726 <_min_stack-0x18da>
  1a:	6e3d                	lui	t3,0xf
  1c:	20656e6f          	jal	t3,56222 <tohost+0x3621a>
  20:	3d757063          	bleu	s7,a0,3e0 <_min_stack-0x1c20>
  24:	6f6e                	flw	ft10,216(sp)
  26:	656e                	flw	fa0,216(sp)
  28:	7020                	flw	fs0,96(s0)
  2a:	3d65                	jal	fffffee2 <pulp__FC+0xfffffee3>
  2c:	312d                	jal	fffffc56 <pulp__FC+0xfffffc57>
  2e:	6620                	flw	fs0,72(a2)
  30:	312d3d63          	p.bneimm	s10,-14,34a <_min_stack-0x1cb6>
  34:	6c20                	flw	fs0,88(s0)
  36:	3d32                	fld	fs10,296(sp)
  38:	312d                	jal	fffffc62 <pulp__FC+0xfffffc63>
  3a:	6c20                	flw	fs0,88(s0)
  3c:	6331                	lui	t1,0xc
  3e:	3d6c                	fld	fa1,248(a0)
  40:	312d                	jal	fffffc6a <pulp__FC+0xfffffc6b>
  42:	6c20                	flw	fs0,88(s0)
  44:	6631                	lui	a2,0xc
  46:	312d3d63          	p.bneimm	s10,-14,360 <_min_stack-0x1ca0>
  4a:	0000                	unimp
	...
