
shadowstack.elf:     file format elf32-littleriscv
architecture: riscv:rv32, flags 0x00000112:
EXEC_P, HAS_SYMS, D_PAGED
start address 0xe0000080

Sections:
Idx Name          Size      VMA       LMA       File off  Algn
  0 .vectors      00000084  e0000000  e0000000  00001000  2**0
                  CONTENTS, ALLOC, LOAD, READONLY, CODE
  1 .text         000006ba  e0000084  e0000084  00001084  2**1
                  CONTENTS, ALLOC, LOAD, READONLY, CODE
  2 .rodata       00000044  e0000740  e0000740  00001740  2**2
                  CONTENTS, ALLOC, LOAD, READONLY, DATA
  3 .data         00000020  e0000784  e0000784  00001784  2**2
                  CONTENTS, ALLOC, LOAD, DATA
  4 .bss          00000000  e00007a4  e00007a4  000017a4  2**0
                  ALLOC
  5 .stack        00002000  e0008000  e0008000  00002000  2**0
                  ALLOC
  6 .debug_frame  00000278  00000000  00000000  000017a4  2**2
                  CONTENTS, READONLY, DEBUGGING
  7 .debug_info   00000e20  00000000  00000000  00001a1c  2**0
                  CONTENTS, READONLY, DEBUGGING
  8 .debug_abbrev 00000571  00000000  00000000  0000283c  2**0
                  CONTENTS, READONLY, DEBUGGING
  9 .debug_loc    00000d52  00000000  00000000  00002dad  2**0
                  CONTENTS, READONLY, DEBUGGING
 10 .debug_aranges 00000070  00000000  00000000  00003b00  2**3
                  CONTENTS, READONLY, DEBUGGING
 11 .debug_ranges 000001a8  00000000  00000000  00003b70  2**3
                  CONTENTS, READONLY, DEBUGGING
 12 .debug_line   00000ab9  00000000  00000000  00003d18  2**0
                  CONTENTS, READONLY, DEBUGGING
 13 .debug_str    00000460  00000000  00000000  000047d1  2**0
                  CONTENTS, READONLY, DEBUGGING
 14 .comment      0000001a  00000000  00000000  00004c31  2**0
                  CONTENTS, READONLY
 15 .Pulp_Chip.Info 0000004e  00000000  00000000  00004c4b  2**0
                  CONTENTS, READONLY

Disassembly of section .vectors:

e0000000 <_vectors_start>:
  .option norvc;
  
  .org 0x00
  .rept 10
  jal x0, default_exc_handler
  .endr
e0000000:	6600006f          	j	e0000660 <default_exc_handler>
e0000004:	65c0006f          	j	e0000660 <default_exc_handler>
e0000008:	6580006f          	j	e0000660 <default_exc_handler>
e000000c:	6540006f          	j	e0000660 <default_exc_handler>
e0000010:	6500006f          	j	e0000660 <default_exc_handler>
e0000014:	64c0006f          	j	e0000660 <default_exc_handler>
e0000018:	6480006f          	j	e0000660 <default_exc_handler>
e000001c:	6440006f          	j	e0000660 <default_exc_handler>
e0000020:	6400006f          	j	e0000660 <default_exc_handler>
e0000024:	63c0006f          	j	e0000660 <default_exc_handler>
  
  jal x0, default_exc_handler
e0000028:	6380006f          	j	e0000660 <default_exc_handler>
  
  jal x0, external_irq_handler
e000002c:	4f40006f          	j	e0000520 <external_irq_handler>

  .org 0x30
  .rept 18
  jal x0, default_exc_handler
  .endr
e0000030:	6300006f          	j	e0000660 <default_exc_handler>
e0000034:	62c0006f          	j	e0000660 <default_exc_handler>
e0000038:	6280006f          	j	e0000660 <default_exc_handler>
e000003c:	6240006f          	j	e0000660 <default_exc_handler>
e0000040:	6200006f          	j	e0000660 <default_exc_handler>
e0000044:	61c0006f          	j	e0000660 <default_exc_handler>
e0000048:	6180006f          	j	e0000660 <default_exc_handler>
e000004c:	6140006f          	j	e0000660 <default_exc_handler>
e0000050:	6100006f          	j	e0000660 <default_exc_handler>
e0000054:	60c0006f          	j	e0000660 <default_exc_handler>
e0000058:	6080006f          	j	e0000660 <default_exc_handler>
e000005c:	6040006f          	j	e0000660 <default_exc_handler>
e0000060:	6000006f          	j	e0000660 <default_exc_handler>
e0000064:	5fc0006f          	j	e0000660 <default_exc_handler>
e0000068:	5f80006f          	j	e0000660 <default_exc_handler>
e000006c:	5f40006f          	j	e0000660 <default_exc_handler>
e0000070:	5f00006f          	j	e0000660 <default_exc_handler>
e0000074:	5ec0006f          	j	e0000660 <default_exc_handler>
  jal x0, default_exc_handler
e0000078:	5e80006f          	j	e0000660 <default_exc_handler>
  jal x0, default_exc_handler
e000007c:	5e40006f          	j	e0000660 <default_exc_handler>


  // reset vector
  .org 0x80
  jal x0, reset_handler
e0000080:	5e40006f          	j	e0000664 <reset_handler>

Disassembly of section .text:

e0000084 <qprintchar.part.0>:
  return *(volatile int*)UART_REG_RBR;
}

void uart_sendchar(const char c) {
  // wait until there is space in the fifo
  while( (*(volatile unsigned int*)(UART_REG_LSR) & 0x20) == 0);
e0000084:	40000737          	lui	a4,0x40000
e0000088:	4b5c                	lw	a5,20(a4)
e000008a:	0207f793          	andi	a5,a5,32
e000008e:	dfed                	beqz	a5,e0000088 <qprintchar.part.0+0x4>

  // load FIFO
  *(volatile unsigned int*)(UART_REG_THR) = c;
e0000090:	c308                	sw	a0,0(a4)
    **str = c;
    ++(*str);
  }
  else
    putchar((char)c);
}
e0000092:	8082                	ret

e0000094 <qprints.constprop.3>:

static int qprints(char **out, const char *string, int width, int pad)
e0000094:	1101                	addi	sp,sp,-32
e0000096:	ca26                	sw	s1,20(sp)
e0000098:	c84a                	sw	s2,16(sp)
e000009a:	ce06                	sw	ra,28(sp)
e000009c:	cc22                	sw	s0,24(sp)
e000009e:	c64e                	sw	s3,12(sp)
e00000a0:	84aa                	mv	s1,a0
e00000a2:	892e                	mv	s2,a1
e00000a4:	00054503          	lbu	a0,0(a0)
{
  register int pc = 0, padchar = ' ';

  if (width > 0) {
e00000a8:	08b05563          	blez	a1,e0000132 <qprints.constprop.3+0x9e>
    register int len = 0;
    register const char *ptr;
    for (ptr = string; *ptr; ++ptr) ++len;
e00000ac:	c95d                	beqz	a0,e0000162 <qprints.constprop.3+0xce>
e00000ae:	87a6                	mv	a5,s1
    register int len = 0;
e00000b0:	4401                	li	s0,0
    for (ptr = string; *ptr; ++ptr) ++len;
e00000b2:	0785                	addi	a5,a5,1
e00000b4:	0007c703          	lbu	a4,0(a5)
e00000b8:	0405                	addi	s0,s0,1
e00000ba:	ff65                	bnez	a4,e00000b2 <qprints.constprop.3+0x1e>
    if (len >= width) width = 0;
e00000bc:	03244e63          	blt	s0,s2,e00000f8 <qprints.constprop.3+0x64>
    else width -= len;
    if (pad & PAD_ZERO) padchar = '0';
e00000c0:	00267413          	andi	s0,a2,2
    if (len >= width) width = 0;
e00000c4:	4901                	li	s2,0
  register int pc = 0, padchar = ' ';
e00000c6:	02000993          	li	s3,32
    if (pad & PAD_ZERO) padchar = '0';
e00000ca:	ec3d                	bnez	s0,e0000148 <qprints.constprop.3+0xb4>
    for ( ; width > 0; --width) {
      qprintchar (out, padchar);
      ++pc;
    }
  }
  for ( ; *string ; ++string) {
e00000cc:	0485                	addi	s1,s1,1
e00000ce:	3f5d                	jal	e0000084 <qprintchar.part.0>
e00000d0:	0004c503          	lbu	a0,0(s1)
    qprintchar (out, *string);
    ++pc;
e00000d4:	0405                	addi	s0,s0,1
  for ( ; *string ; ++string) {
e00000d6:	f97d                	bnez	a0,e00000cc <qprints.constprop.3+0x38>
  }
  for ( ; width > 0; --width) {
e00000d8:	01205863          	blez	s2,e00000e8 <qprints.constprop.3+0x54>
e00000dc:	84ca                	mv	s1,s2
e00000de:	14fd                	addi	s1,s1,-1
e00000e0:	854e                	mv	a0,s3
e00000e2:	374d                	jal	e0000084 <qprintchar.part.0>
e00000e4:	fced                	bnez	s1,e00000de <qprints.constprop.3+0x4a>
e00000e6:	944a                	add	s0,s0,s2
    qprintchar (out, padchar);
    ++pc;
  }

  return pc;
}
e00000e8:	8522                	mv	a0,s0
e00000ea:	40f2                	lw	ra,28(sp)
e00000ec:	4462                	lw	s0,24(sp)
e00000ee:	44d2                	lw	s1,20(sp)
e00000f0:	4942                	lw	s2,16(sp)
e00000f2:	49b2                	lw	s3,12(sp)
e00000f4:	6105                	addi	sp,sp,32
e00000f6:	8082                	ret
e00000f8:	40890433          	sub	s0,s2,s0
    if (pad & PAD_ZERO) padchar = '0';
e00000fc:	00267793          	andi	a5,a2,2
  register int pc = 0, padchar = ' ';
e0000100:	02000993          	li	s3,32
    if (pad & PAD_ZERO) padchar = '0';
e0000104:	c399                	beqz	a5,e000010a <qprints.constprop.3+0x76>
e0000106:	03000993          	li	s3,48
  if (!(pad & PAD_RIGHT)) {
e000010a:	8a05                	andi	a2,a2,1
    for ( ; width > 0; --width) {
e000010c:	8922                	mv	s2,s0
  if (!(pad & PAD_RIGHT)) {
e000010e:	e639                	bnez	a2,e000015c <qprints.constprop.3+0xc8>
    for ( ; width > 0; --width) {
e0000110:	02805363          	blez	s0,e0000136 <qprints.constprop.3+0xa2>
e0000114:	197d                	addi	s2,s2,-1
e0000116:	854e                	mv	a0,s3
e0000118:	37b5                	jal	e0000084 <qprintchar.part.0>
e000011a:	fe091de3          	bnez	s2,e0000114 <qprints.constprop.3+0x80>
e000011e:	0004c503          	lbu	a0,0(s1)
  for ( ; *string ; ++string) {
e0000122:	d179                	beqz	a0,e00000e8 <qprints.constprop.3+0x54>
e0000124:	0485                	addi	s1,s1,1
e0000126:	3fb9                	jal	e0000084 <qprintchar.part.0>
e0000128:	0004c503          	lbu	a0,0(s1)
    ++pc;
e000012c:	0405                	addi	s0,s0,1
  for ( ; *string ; ++string) {
e000012e:	fd59                	bnez	a0,e00000cc <qprints.constprop.3+0x38>
e0000130:	b765                	j	e00000d8 <qprints.constprop.3+0x44>
  register int pc = 0, padchar = ' ';
e0000132:	02000993          	li	s3,32
  for ( ; *string ; ++string) {
e0000136:	4401                	li	s0,0
e0000138:	d945                	beqz	a0,e00000e8 <qprints.constprop.3+0x54>
e000013a:	0485                	addi	s1,s1,1
e000013c:	37a1                	jal	e0000084 <qprintchar.part.0>
e000013e:	0004c503          	lbu	a0,0(s1)
    ++pc;
e0000142:	0405                	addi	s0,s0,1
  for ( ; *string ; ++string) {
e0000144:	f541                	bnez	a0,e00000cc <qprints.constprop.3+0x38>
e0000146:	bf49                	j	e00000d8 <qprints.constprop.3+0x44>
e0000148:	0485                	addi	s1,s1,1
e000014a:	3f2d                	jal	e0000084 <qprintchar.part.0>
e000014c:	0004c503          	lbu	a0,0(s1)
    if (pad & PAD_ZERO) padchar = '0';
e0000150:	4401                	li	s0,0
e0000152:	03000993          	li	s3,48
    ++pc;
e0000156:	0405                	addi	s0,s0,1
  for ( ; *string ; ++string) {
e0000158:	f935                	bnez	a0,e00000cc <qprints.constprop.3+0x38>
e000015a:	bfbd                	j	e00000d8 <qprints.constprop.3+0x44>
e000015c:	4401                	li	s0,0
e000015e:	f53d                	bnez	a0,e00000cc <qprints.constprop.3+0x38>
e0000160:	bfa5                	j	e00000d8 <qprints.constprop.3+0x44>
    for (ptr = string; *ptr; ++ptr) ++len;
e0000162:	842e                	mv	s0,a1
e0000164:	bf61                	j	e00000fc <qprints.constprop.3+0x68>

e0000166 <qprinti.constprop.2>:

static int qprinti(char **out, int i, int b, int sg, int width, int pad, char letbase)
e0000166:	7139                	addi	sp,sp,-64
e0000168:	de06                	sw	ra,60(sp)
e000016a:	dc22                	sw	s0,56(sp)
e000016c:	da26                	sw	s1,52(sp)
  char print_buf[PRINT_BUF_LEN];
  register char *s;
  register int neg = 0, pc = 0;
  unsigned int u = i;

  if (i == 0)
e000016e:	0e050d63          	beqz	a0,e0000268 <qprinti.constprop.2+0x102>
e0000172:	8432                	mv	s0,a2
  unsigned int u = i;
e0000174:	882a                	mv	a6,a0
    print_buf[0] = '0';
    print_buf[1] = '\0';
    return qprints (out, print_buf, width, pad);
  }

  if (sg && b == 10 && i < 0)
e0000176:	c639                	beqz	a2,e00001c4 <qprinti.constprop.2+0x5e>
e0000178:	4629                	li	a2,10
e000017a:	10c58463          	beq	a1,a2,e0000282 <qprinti.constprop.2+0x11c>
    neg = 1;
    u = -i;
  }

  s = print_buf + PRINT_BUF_LEN-1;
  *s = '\0';
e000017e:	020107a3          	sb	zero,47(sp)

  // treat HEX and decimal differently
  if(b == 16) {
e0000182:	4641                	li	a2,16
e0000184:	4401                	li	s0,0
e0000186:	04c59463          	bne	a1,a2,e00001ce <qprinti.constprop.2+0x68>
static int qprinti(char **out, int i, int b, int sg, int width, int pad, char letbase)
e000018a:	02f10513          	addi	a0,sp,47
    // HEX
    while (u) {
      int t = u & 0xF;

      if (t >= 10)
e000018e:	4625                	li	a2,9
        t += letbase - '0' - 10;
e0000190:	fc678793          	addi	a5,a5,-58
      int t = u & 0xF;
e0000194:	00f87593          	andi	a1,a6,15

      *--s = t + '0';
e0000198:	157d                	addi	a0,a0,-1
      u >>= 4;
e000019a:	00485813          	srli	a6,a6,0x4
      if (t >= 10)
e000019e:	00b65363          	ble	a1,a2,e00001a4 <qprinti.constprop.2+0x3e>
        t += letbase - '0' - 10;
e00001a2:	95be                	add	a1,a1,a5
      *--s = t + '0';
e00001a4:	03058593          	addi	a1,a1,48
e00001a8:	00b50023          	sb	a1,0(a0)
    while (u) {
e00001ac:	fe0814e3          	bnez	a6,e0000194 <qprinti.constprop.2+0x2e>
  register int neg = 0, pc = 0;
e00001b0:	4401                	li	s0,0
    else
    {
      *--s = '-';
    }
  }
  return pc + qprints (out, s, width, pad);
e00001b2:	863a                	mv	a2,a4
e00001b4:	85b6                	mv	a1,a3
e00001b6:	3df9                	jal	e0000094 <qprints.constprop.3>
e00001b8:	9522                	add	a0,a0,s0
}
e00001ba:	50f2                	lw	ra,60(sp)
e00001bc:	5462                	lw	s0,56(sp)
e00001be:	54d2                	lw	s1,52(sp)
e00001c0:	6121                	addi	sp,sp,64
e00001c2:	8082                	ret
  *s = '\0';
e00001c4:	020107a3          	sb	zero,47(sp)
  if(b == 16) {
e00001c8:	4641                	li	a2,16
e00001ca:	fcc580e3          	beq	a1,a2,e000018a <qprinti.constprop.2+0x24>
  n = (0x19999999 * n + (n >> 1) + (n >> 3)) >> 28;
e00001ce:	1999a537          	lui	a0,0x1999a
  if(b == 16) {
e00001d2:	02f10493          	addi	s1,sp,47
e00001d6:	00000e97          	auipc	t4,0x0
e00001da:	5aee8e93          	addi	t4,t4,1454 # e0000784 <remu10_table>
  n = (0x19999999 * n + (n >> 1) + (n >> 3)) >> 28;
e00001de:	99950513          	addi	a0,a0,-1639 # 19999999 <tohost+0x19979991>
e00001e2:	02a808b3          	mul	a7,a6,a0
e00001e6:	00185613          	srli	a2,a6,0x1
  q = (n >> 1) + (n >> 2);
e00001ea:	00285793          	srli	a5,a6,0x2
e00001ee:	97b2                	add	a5,a5,a2
  q = q + (q >> 4);
e00001f0:	0047d593          	srli	a1,a5,0x4
e00001f4:	97ae                	add	a5,a5,a1
  q = q + (q >> 8);
e00001f6:	0087d593          	srli	a1,a5,0x8
e00001fa:	97ae                	add	a5,a5,a1
  n = (0x19999999 * n + (n >> 1) + (n >> 3)) >> 28;
e00001fc:	00385313          	srli	t1,a6,0x3
  q = q + (q >> 16);
e0000200:	0107d593          	srli	a1,a5,0x10
  n = (0x19999999 * n + (n >> 1) + (n >> 3)) >> 28;
e0000204:	98b2                	add	a7,a7,a2
e0000206:	989a                	add	a7,a7,t1
  q = q + (q >> 16);
e0000208:	97ae                	add	a5,a5,a1
  q = q >> 3;
e000020a:	838d                	srli	a5,a5,0x3
  n = (0x19999999 * n + (n >> 1) + (n >> 3)) >> 28;
e000020c:	01c8d893          	srli	a7,a7,0x1c
  return remu10_table[n];
e0000210:	98f6                	add	a7,a7,t4
  r = n - q * 10;
e0000212:	00279313          	slli	t1,a5,0x2
      *--s = remu10(u) + '0';
e0000216:	0008ce03          	lbu	t3,0(a7)
  r = n - q * 10;
e000021a:	00f308b3          	add	a7,t1,a5
e000021e:	0886                	slli	a7,a7,0x1
  return q + ((r + 6) >> 4);
e0000220:	0819                	addi	a6,a6,6
e0000222:	41180833          	sub	a6,a6,a7
      *--s = remu10(u) + '0';
e0000226:	14fd                	addi	s1,s1,-1
e0000228:	030e0893          	addi	a7,t3,48
  return q + ((r + 6) >> 4);
e000022c:	00485813          	srli	a6,a6,0x4
      *--s = remu10(u) + '0';
e0000230:	01148023          	sb	a7,0(s1)
  return q + ((r + 6) >> 4);
e0000234:	983e                	add	a6,a6,a5
    while (u) {
e0000236:	fa0816e3          	bnez	a6,e00001e2 <qprinti.constprop.2+0x7c>
  if (neg) {
e000023a:	c831                	beqz	s0,e000028e <qprinti.constprop.2+0x128>
    if( width && (pad & PAD_ZERO) )
e000023c:	ce99                	beqz	a3,e000025a <qprinti.constprop.2+0xf4>
e000023e:	00277793          	andi	a5,a4,2
e0000242:	cf81                	beqz	a5,e000025a <qprinti.constprop.2+0xf4>
e0000244:	02d00513          	li	a0,45
e0000248:	c636                	sw	a3,12(sp)
e000024a:	c43a                	sw	a4,8(sp)
e000024c:	3d25                	jal	e0000084 <qprintchar.part.0>
      --width;
e000024e:	46b2                	lw	a3,12(sp)
e0000250:	8526                	mv	a0,s1
      ++pc;
e0000252:	4405                	li	s0,1
      --width;
e0000254:	16fd                	addi	a3,a3,-1
e0000256:	4722                	lw	a4,8(sp)
e0000258:	bfa9                	j	e00001b2 <qprinti.constprop.2+0x4c>
      *--s = '-';
e000025a:	02d00793          	li	a5,45
e000025e:	fff48513          	addi	a0,s1,-1
e0000262:	fef48fa3          	sb	a5,-1(s1)
e0000266:	b7a9                	j	e00001b0 <qprinti.constprop.2+0x4a>
    return qprints (out, print_buf, width, pad);
e0000268:	0808                	addi	a0,sp,16
    print_buf[0] = '0';
e000026a:	03000793          	li	a5,48
    return qprints (out, print_buf, width, pad);
e000026e:	863a                	mv	a2,a4
e0000270:	85b6                	mv	a1,a3
    print_buf[0] = '0';
e0000272:	00f11823          	sh	a5,16(sp)
    return qprints (out, print_buf, width, pad);
e0000276:	3d39                	jal	e0000094 <qprints.constprop.3>
}
e0000278:	50f2                	lw	ra,60(sp)
e000027a:	5462                	lw	s0,56(sp)
e000027c:	54d2                	lw	s1,52(sp)
e000027e:	6121                	addi	sp,sp,64
e0000280:	8082                	ret
  if (sg && b == 10 && i < 0)
e0000282:	00054863          	bltz	a0,e0000292 <qprinti.constprop.2+0x12c>
  *s = '\0';
e0000286:	020107a3          	sb	zero,47(sp)
  register int neg = 0, pc = 0;
e000028a:	4401                	li	s0,0
e000028c:	b789                	j	e00001ce <qprinti.constprop.2+0x68>
      *--s = remu10(u) + '0';
e000028e:	8526                	mv	a0,s1
e0000290:	b70d                	j	e00001b2 <qprinti.constprop.2+0x4c>
    u = -i;
e0000292:	40a00833          	neg	a6,a0
  *s = '\0';
e0000296:	020107a3          	sb	zero,47(sp)
e000029a:	bf15                	j	e00001ce <qprinti.constprop.2+0x68>

e000029c <uart_set_cfg>:
  *(volatile unsigned int*)(UART_REG_LCR) = 0x83; //sets 8N1 and set DLAB to 1
e000029c:	400007b7          	lui	a5,0x40000
e00002a0:	08300713          	li	a4,131
e00002a4:	c7d8                	sw	a4,12(a5)
  *(volatile unsigned int*)(UART_REG_DLM) = (clk_counter >> 8) & 0xFF;
e00002a6:	0085d713          	srli	a4,a1,0x8
e00002aa:	c3d8                	sw	a4,4(a5)
  *(volatile unsigned int*)(UART_REG_DLL) =  clk_counter       & 0xFF;
e00002ac:	0ff5f593          	andi	a1,a1,255
e00002b0:	c38c                	sw	a1,0(a5)
  *(volatile unsigned int*)(UART_REG_FCR) = 0xA7; //enables 16byte FIFO and clear FIFOs
e00002b2:	0a700713          	li	a4,167
e00002b6:	c798                	sw	a4,8(a5)
  *(volatile unsigned int*)(UART_REG_LCR) = 0x03; //sets 8N1 and set DLAB to 0
e00002b8:	470d                	li	a4,3
e00002ba:	c7d8                	sw	a4,12(a5)
  *(volatile unsigned int*)(UART_REG_IER) = ((*(volatile unsigned int*)(UART_REG_IER)) & 0xF0) | 0x02; // set IER (interrupt enable register) on UART
e00002bc:	43d8                	lw	a4,4(a5)
e00002be:	0f077713          	andi	a4,a4,240
e00002c2:	00276713          	ori	a4,a4,2
e00002c6:	c3d8                	sw	a4,4(a5)
}
e00002c8:	8082                	ret

e00002ca <uart_send>:
    while( (*(volatile unsigned int*)(UART_REG_LSR) & 0x20) == 0);
e00002ca:	400006b7          	lui	a3,0x40000
  while(len > 0) {
e00002ce:	c59d                	beqz	a1,e00002fc <uart_send+0x32>
    while( (*(volatile unsigned int*)(UART_REG_LSR) & 0x20) == 0);
e00002d0:	4adc                	lw	a5,20(a3)
e00002d2:	0207f793          	andi	a5,a5,32
e00002d6:	dfed                	beqz	a5,e00002d0 <uart_send+0x6>
      *(volatile unsigned int*)(UART_REG_THR) = *str++;
e00002d8:	00054703          	lbu	a4,0(a0)
e00002dc:	00150793          	addi	a5,a0,1
      len--;
e00002e0:	15fd                	addi	a1,a1,-1
      *(volatile unsigned int*)(UART_REG_THR) = *str++;
e00002e2:	c298                	sw	a4,0(a3)
e00002e4:	04050513          	addi	a0,a0,64
e00002e8:	a039                	j	e00002f6 <uart_send+0x2c>
e00002ea:	fff7c703          	lbu	a4,-1(a5) # 3fffffff <tohost+0x3ffdfff7>
      len--;
e00002ee:	15fd                	addi	a1,a1,-1
      *(volatile unsigned int*)(UART_REG_THR) = *str++;
e00002f0:	c298                	sw	a4,0(a3)
    for(i = 0; (i < UART_FIFO_DEPTH) && (len > 0); i++) {
e00002f2:	00a78663          	beq	a5,a0,e00002fe <uart_send+0x34>
      *(volatile unsigned int*)(UART_REG_THR) = *str++;
e00002f6:	0785                	addi	a5,a5,1
    for(i = 0; (i < UART_FIFO_DEPTH) && (len > 0); i++) {
e00002f8:	f9ed                	bnez	a1,e00002ea <uart_send+0x20>
e00002fa:	8082                	ret
}
e00002fc:	8082                	ret
      *(volatile unsigned int*)(UART_REG_THR) = *str++;
e00002fe:	853e                	mv	a0,a5
e0000300:	b7f9                	j	e00002ce <uart_send+0x4>

e0000302 <uart_getchar>:
  while((*((volatile int*)UART_REG_LSR) & 0x1) != 0x1);
e0000302:	40000737          	lui	a4,0x40000
e0000306:	4b5c                	lw	a5,20(a4)
e0000308:	8b85                	andi	a5,a5,1
e000030a:	dff5                	beqz	a5,e0000306 <uart_getchar+0x4>
  return *(volatile int*)UART_REG_RBR;
e000030c:	4308                	lw	a0,0(a4)
}
e000030e:	0ff57513          	andi	a0,a0,255
e0000312:	8082                	ret

e0000314 <uart_sendchar>:
  while( (*(volatile unsigned int*)(UART_REG_LSR) & 0x20) == 0);
e0000314:	40000737          	lui	a4,0x40000
e0000318:	4b5c                	lw	a5,20(a4)
e000031a:	0207f793          	andi	a5,a5,32
e000031e:	dfed                	beqz	a5,e0000318 <uart_sendchar+0x4>
  *(volatile unsigned int*)(UART_REG_THR) = c;
e0000320:	c308                	sw	a0,0(a4)
}
e0000322:	8082                	ret

e0000324 <uart_wait_tx_done>:
  while( (*(volatile unsigned int*)(UART_REG_LSR) & 0x40) == 0);
e0000324:	40000737          	lui	a4,0x40000
e0000328:	4b5c                	lw	a5,20(a4)
e000032a:	0407f793          	andi	a5,a5,64
e000032e:	dfed                	beqz	a5,e0000328 <uart_wait_tx_done+0x4>
}
e0000330:	8082                	ret

e0000332 <putchar>:
  while( (*(volatile unsigned int*)(UART_REG_LSR) & 0x20) == 0);
e0000332:	40000737          	lui	a4,0x40000
e0000336:	4b5c                	lw	a5,20(a4)
e0000338:	0207f793          	andi	a5,a5,32
e000033c:	dfed                	beqz	a5,e0000336 <putchar+0x4>
  *(volatile unsigned int*)(UART_REG_THR) = c;
e000033e:	0ff57793          	andi	a5,a0,255
e0000342:	c31c                	sw	a5,0(a4)
}
e0000344:	8082                	ret

e0000346 <printf>:

  return pc;
}

int printf(const char *format, ...)
{
e0000346:	711d                	addi	sp,sp,-96
e0000348:	d452                	sw	s4,40(sp)
e000034a:	de06                	sw	ra,60(sp)
e000034c:	dc22                	sw	s0,56(sp)
e000034e:	da26                	sw	s1,52(sp)
e0000350:	d84a                	sw	s2,48(sp)
e0000352:	d64e                	sw	s3,44(sp)
e0000354:	d256                	sw	s5,36(sp)
e0000356:	d05a                	sw	s6,32(sp)
e0000358:	ce5e                	sw	s7,28(sp)
e000035a:	cc62                	sw	s8,24(sp)
e000035c:	ca66                	sw	s9,20(sp)
e000035e:	c86a                	sw	s10,16(sp)
e0000360:	c2ae                	sw	a1,68(sp)
e0000362:	c4b2                	sw	a2,72(sp)
e0000364:	c6b6                	sw	a3,76(sp)
e0000366:	c8ba                	sw	a4,80(sp)
e0000368:	cabe                	sw	a5,84(sp)
e000036a:	ccc2                	sw	a6,88(sp)
e000036c:	cec6                	sw	a7,92(sp)
  for (; *format != 0; ++format)
e000036e:	00054783          	lbu	a5,0(a0)
  int pc;
  va_list va;

  va_start(va, format);
e0000372:	04410a13          	addi	s4,sp,68
e0000376:	c652                	sw	s4,12(sp)
  for (; *format != 0; ++format)
e0000378:	c3f5                	beqz	a5,e000045c <printf+0x116>
e000037a:	8caa                	mv	s9,a0
  register int pc = 0;
e000037c:	4d01                	li	s10,0
    if (*format == '%')
e000037e:	02500493          	li	s1,37
      if (*format == '-')
e0000382:	02d00b13          	li	s6,45
      while (*format == '0')
e0000386:	03000993          	li	s3,48
      for ( ; *format >= '0' && *format <= '9'; ++format) {
e000038a:	4925                	li	s2,9
      if( *format == 's' ) {
e000038c:	07300a93          	li	s5,115
      if( *format == 'd' ) {
e0000390:	06400b93          	li	s7,100
        pc += qprints (out, s?s:"(null)", width, pad);
e0000394:	00000c17          	auipc	s8,0x0
e0000398:	3acc0c13          	addi	s8,s8,940 # e0000740 <main+0x64>
e000039c:	a819                	j	e00003b2 <printf+0x6c>
    if (*format == '%')
e000039e:	87a2                	mv	a5,s0
e00003a0:	000cc503          	lbu	a0,0(s9)
e00003a4:	8466                	mv	s0,s9
e00003a6:	8cbe                	mv	s9,a5
e00003a8:	39f1                	jal	e0000084 <qprintchar.part.0>
      ++pc;
e00003aa:	0d05                	addi	s10,s10,1
  for (; *format != 0; ++format)
e00003ac:	00144783          	lbu	a5,1(s0)
e00003b0:	c7dd                	beqz	a5,e000045e <printf+0x118>
e00003b2:	001c8413          	addi	s0,s9,1
    if (*format == '%')
e00003b6:	fe9794e3          	bne	a5,s1,e000039e <printf+0x58>
      if (*format == '\0') break;
e00003ba:	001cc503          	lbu	a0,1(s9)
e00003be:	c145                	beqz	a0,e000045e <printf+0x118>
      if (*format == '%') goto out;
e00003c0:	00951463          	bne	a0,s1,e00003c8 <printf+0x82>
e00003c4:	0c89                	addi	s9,s9,2
e00003c6:	b7cd                	j	e00003a8 <printf+0x62>
      width = pad = 0;
e00003c8:	4701                	li	a4,0
      if (*format == '-')
e00003ca:	09650363          	beq	a0,s6,e0000450 <printf+0x10a>
      while (*format == '0')
e00003ce:	01351963          	bne	a0,s3,e00003e0 <printf+0x9a>
        ++format;
e00003d2:	0405                	addi	s0,s0,1
      while (*format == '0')
e00003d4:	00044503          	lbu	a0,0(s0)
        pad |= PAD_ZERO;
e00003d8:	00276713          	ori	a4,a4,2
      while (*format == '0')
e00003dc:	ff350be3          	beq	a0,s3,e00003d2 <printf+0x8c>
      for ( ; *format >= '0' && *format <= '9'; ++format) {
e00003e0:	fd050793          	addi	a5,a0,-48
e00003e4:	0ff7f693          	andi	a3,a5,255
      width = pad = 0;
e00003e8:	4581                	li	a1,0
      for ( ; *format >= '0' && *format <= '9'; ++format) {
e00003ea:	02d96163          	bltu	s2,a3,e000040c <printf+0xc6>
e00003ee:	0405                	addi	s0,s0,1
        width *= 10;
e00003f0:	00259693          	slli	a3,a1,0x2
      for ( ; *format >= '0' && *format <= '9'; ++format) {
e00003f4:	00044503          	lbu	a0,0(s0)
        width *= 10;
e00003f8:	96ae                	add	a3,a3,a1
e00003fa:	0686                	slli	a3,a3,0x1
        width += *format - '0';
e00003fc:	00d785b3          	add	a1,a5,a3
      for ( ; *format >= '0' && *format <= '9'; ++format) {
e0000400:	fd050793          	addi	a5,a0,-48
e0000404:	0ff7f693          	andi	a3,a5,255
e0000408:	fed973e3          	bleu	a3,s2,e00003ee <printf+0xa8>
e000040c:	00140c93          	addi	s9,s0,1
      if( *format == 's' ) {
e0000410:	07550663          	beq	a0,s5,e000047c <printf+0x136>
      if( *format == 'd' ) {
e0000414:	07750c63          	beq	a0,s7,e000048c <printf+0x146>
      if( *format == 'u' ) {
e0000418:	07500793          	li	a5,117
e000041c:	08f50363          	beq	a0,a5,e00004a2 <printf+0x15c>
      if( *format == 'x' ) {
e0000420:	07800793          	li	a5,120
e0000424:	08f50a63          	beq	a0,a5,e00004b8 <printf+0x172>
      if( *format == 'X' ) {
e0000428:	05800793          	li	a5,88
e000042c:	0af50163          	beq	a0,a5,e00004ce <printf+0x188>
      if( *format == 'c' ) {
e0000430:	06300793          	li	a5,99
e0000434:	f6f51ce3          	bne	a0,a5,e00003ac <printf+0x66>
        scr[0] = va_arg(va, int);
e0000438:	000a2783          	lw	a5,0(s4)
        pc += qprints (out, scr, width, pad);
e000043c:	863a                	mv	a2,a4
e000043e:	0028                	addi	a0,sp,8
        scr[0] = va_arg(va, int);
e0000440:	00f10423          	sb	a5,8(sp)
        scr[1] = '\0';
e0000444:	000104a3          	sb	zero,9(sp)
        pc += qprints (out, scr, width, pad);
e0000448:	31b1                	jal	e0000094 <qprints.constprop.3>
        scr[0] = va_arg(va, int);
e000044a:	0a11                	addi	s4,s4,4
        pc += qprints (out, scr, width, pad);
e000044c:	9d2a                	add	s10,s10,a0
e000044e:	bfb9                	j	e00003ac <printf+0x66>
e0000450:	002cc503          	lbu	a0,2(s9)
        ++format;
e0000454:	002c8413          	addi	s0,s9,2
        pad = PAD_RIGHT;
e0000458:	4705                	li	a4,1
e000045a:	bf95                	j	e00003ce <printf+0x88>
  register int pc = 0;
e000045c:	4d01                	li	s10,0

  va_end(va);

  return pc;

}
e000045e:	50f2                	lw	ra,60(sp)
e0000460:	5462                	lw	s0,56(sp)
e0000462:	856a                	mv	a0,s10
e0000464:	54d2                	lw	s1,52(sp)
e0000466:	5942                	lw	s2,48(sp)
e0000468:	59b2                	lw	s3,44(sp)
e000046a:	5a22                	lw	s4,40(sp)
e000046c:	5a92                	lw	s5,36(sp)
e000046e:	5b02                	lw	s6,32(sp)
e0000470:	4bf2                	lw	s7,28(sp)
e0000472:	4c62                	lw	s8,24(sp)
e0000474:	4cd2                	lw	s9,20(sp)
e0000476:	4d42                	lw	s10,16(sp)
e0000478:	6125                	addi	sp,sp,96
e000047a:	8082                	ret
        register char *s = va_arg(va, char*);
e000047c:	000a2503          	lw	a0,0(s4)
e0000480:	0a11                	addi	s4,s4,4
        pc += qprints (out, s?s:"(null)", width, pad);
e0000482:	c939                	beqz	a0,e00004d8 <printf+0x192>
e0000484:	863a                	mv	a2,a4
e0000486:	3139                	jal	e0000094 <qprints.constprop.3>
e0000488:	9d2a                	add	s10,s10,a0
e000048a:	b70d                	j	e00003ac <printf+0x66>
        pc += qprinti (out, va_arg(va, int), 10, 1, width, pad, 'a');
e000048c:	000a2503          	lw	a0,0(s4)
e0000490:	86ae                	mv	a3,a1
e0000492:	06100793          	li	a5,97
e0000496:	4605                	li	a2,1
e0000498:	45a9                	li	a1,10
e000049a:	31f1                	jal	e0000166 <qprinti.constprop.2>
e000049c:	0a11                	addi	s4,s4,4
e000049e:	9d2a                	add	s10,s10,a0
e00004a0:	b731                	j	e00003ac <printf+0x66>
        pc += qprinti (out, va_arg(va, unsigned int), 10, 0, width, pad, 'a');
e00004a2:	000a2503          	lw	a0,0(s4)
e00004a6:	86ae                	mv	a3,a1
e00004a8:	06100793          	li	a5,97
e00004ac:	4601                	li	a2,0
e00004ae:	45a9                	li	a1,10
e00004b0:	395d                	jal	e0000166 <qprinti.constprop.2>
e00004b2:	0a11                	addi	s4,s4,4
e00004b4:	9d2a                	add	s10,s10,a0
e00004b6:	bddd                	j	e00003ac <printf+0x66>
        pc += qprinti (out, va_arg(va, uint32_t), 16, 0, width, pad, 'a');
e00004b8:	000a2503          	lw	a0,0(s4)
e00004bc:	06100793          	li	a5,97
        pc += qprinti (out, va_arg(va, uint32_t), 16, 0, width, pad, 'A');
e00004c0:	86ae                	mv	a3,a1
e00004c2:	4601                	li	a2,0
e00004c4:	45c1                	li	a1,16
e00004c6:	3145                	jal	e0000166 <qprinti.constprop.2>
e00004c8:	0a11                	addi	s4,s4,4
e00004ca:	9d2a                	add	s10,s10,a0
e00004cc:	b5c5                	j	e00003ac <printf+0x66>
e00004ce:	000a2503          	lw	a0,0(s4)
e00004d2:	04100793          	li	a5,65
e00004d6:	b7ed                	j	e00004c0 <printf+0x17a>
        pc += qprints (out, s?s:"(null)", width, pad);
e00004d8:	8562                	mv	a0,s8
e00004da:	b76d                	j	e0000484 <printf+0x13e>

e00004dc <simple_exc_handler>:
  printf("EXCEPTION!!!\r\n");
e00004dc:	00000517          	auipc	a0,0x0
e00004e0:	26c50513          	addi	a0,a0,620 # e0000748 <main+0x6c>
e00004e4:	b58d                	j	e0000346 <printf>

e00004e6 <puts>:

int puts(const char *s)
{
  int i=0;

  while(s[i] != '\0')
e00004e6:	00054603          	lbu	a2,0(a0)
e00004ea:	ca0d                	beqz	a2,e000051c <puts+0x36>
e00004ec:	00150693          	addi	a3,a0,1
  while( (*(volatile unsigned int*)(UART_REG_LSR) & 0x20) == 0);
e00004f0:	40000737          	lui	a4,0x40000
  int i=0;
e00004f4:	4501                	li	a0,0
    putchar(s[i++]);
e00004f6:	0505                	addi	a0,a0,1
  while( (*(volatile unsigned int*)(UART_REG_LSR) & 0x20) == 0);
e00004f8:	4b5c                	lw	a5,20(a4)
e00004fa:	0207f793          	andi	a5,a5,32
e00004fe:	dfed                	beqz	a5,e00004f8 <puts+0x12>
  *(volatile unsigned int*)(UART_REG_THR) = c;
e0000500:	c310                	sw	a2,0(a4)
e0000502:	0685                	addi	a3,a3,1
  while(s[i] != '\0')
e0000504:	fff6c603          	lbu	a2,-1(a3) # 3fffffff <tohost+0x3ffdfff7>
e0000508:	f67d                	bnez	a2,e00004f6 <puts+0x10>
  while( (*(volatile unsigned int*)(UART_REG_LSR) & 0x20) == 0);
e000050a:	40000737          	lui	a4,0x40000
e000050e:	4b5c                	lw	a5,20(a4)
e0000510:	0207f793          	andi	a5,a5,32
e0000514:	dfed                	beqz	a5,e000050e <puts+0x28>
  *(volatile unsigned int*)(UART_REG_THR) = c;
e0000516:	47a9                	li	a5,10
e0000518:	c31c                	sw	a5,0(a4)

  putchar('\n');

  return i;
}
e000051a:	8082                	ret
  int i=0;
e000051c:	4501                	li	a0,0
e000051e:	b7f5                	j	e000050a <puts+0x24>

e0000520 <external_irq_handler>:
 * External IRQ handler
 * ===========================================================================*/

void 
external_irq_handler(void)
{
e0000520:	1101                	addi	sp,sp,-32
e0000522:	c43e                	sw	a5,8(sp)
	*MAILBOX_REG_DOORBELL = 0;
e0000524:	104047b7          	lui	a5,0x10404
{
e0000528:	c836                	sw	a3,16(sp)
e000052a:	c63a                	sw	a4,12(sp)
e000052c:	ce2a                	sw	a0,28(sp)
	return (MAILBOX_REG_DATA[0] & 0x00000df7) == 0x000000e7;
e000052e:	4398                	lw	a4,0(a5)
{
e0000530:	cc2e                	sw	a1,24(sp)
e0000532:	ca32                	sw	a2,20(sp)
	// Shadow Stack.
	uint64_t address = 0x0;
	bool     fault   = false;

	// Claim the IRQ to serve the interrupt request.
	(void)*IRQ_COMPLETE;
e0000534:	c82006b7          	lui	a3,0xc8200
e0000538:	42d4                	lw	a3,4(a3)
	*MAILBOX_REG_DOORBELL = 0;
e000053a:	0207a023          	sw	zero,32(a5) # 10404020 <tohost+0x103e4018>
	return (MAILBOX_REG_DATA[0] & 0x00000df7) == 0x000000e7;
e000053e:	6785                	lui	a5,0x1
e0000540:	df778793          	addi	a5,a5,-521 # df7 <_min_stack-0x1209>
e0000544:	8ff9                	and	a5,a5,a4

	mailbox_clear_doorbell();
	if (mailbox_is_call()) {
e0000546:	0e700693          	li	a3,231
e000054a:	06d78e63          	beq	a5,a3,e00005c6 <external_irq_handler+0xa6>
	return (MAILBOX_REG_DATA[0] & 0x000d807f) == 0x00008067;
e000054e:	000d87b7          	lui	a5,0xd8
e0000552:	07f78793          	addi	a5,a5,127 # d807f <tohost+0xb8077>
		if (shadow_stack_is_full()) {
			shadow_stack_save();
		}
		address = mailbox_get_pc_src();
		shadow_stack_push(address);
	} else if (mailbox_is_return()) {
e0000556:	66a1                	lui	a3,0x8
	return (MAILBOX_REG_DATA[0] & 0x000d807f) == 0x00008067;
e0000558:	8f7d                	and	a4,a4,a5
	} else if (mailbox_is_return()) {
e000055a:	06768693          	addi	a3,a3,103 # 8067 <_stack_len+0x67>
e000055e:	4781                	li	a5,0
e0000560:	02d70563          	beq	a4,a3,e000058a <external_irq_handler+0x6a>
	MAILBOX_REG_DATA[0] = data;
e0000564:	10404737          	lui	a4,0x10404
e0000568:	c31c                	sw	a5,0(a4)
	*MAILBOX_REG_COMPLETION = 1;
e000056a:	4785                	li	a5,1
e000056c:	d35c                	sw	a5,36(a4)
	}
	mailbox_complete(fault);

	// Complete interrupt writing the interrupt ID to the PLIC Completion
	// register.
	*IRQ_COMPLETE = MAILBOX_IRQ_ID;
e000056e:	c82007b7          	lui	a5,0xc8200
e0000572:	04400713          	li	a4,68
e0000576:	c3d8                	sw	a4,4(a5)
}
e0000578:	4572                	lw	a0,28(sp)
e000057a:	45e2                	lw	a1,24(sp)
e000057c:	4652                	lw	a2,20(sp)
e000057e:	46c2                	lw	a3,16(sp)
e0000580:	4732                	lw	a4,12(sp)
e0000582:	47a2                	lw	a5,8(sp)
e0000584:	6105                	addi	sp,sp,32
e0000586:	30200073          	mret
	return shadow_stack.ptr == shadow_stack.base;
e000058a:	00000717          	auipc	a4,0x0
e000058e:	20a70713          	addi	a4,a4,522 # e0000794 <shadow_stack>
e0000592:	471c                	lw	a5,8(a4)
		if (shadow_stack_is_empty()) {
e0000594:	4314                	lw	a3,0(a4)
e0000596:	08d78663          	beq	a5,a3,e0000622 <external_irq_handler+0x102>
e000059a:	ff878513          	addi	a0,a5,-8 # c81ffff8 <pulp__FC+0xc81ffff9>
	return *(ssptr_t*)(MAILBOX_REG_DATA + 1 + sizeof(ssptr_t)/sizeof(uint32_t));
e000059e:	10404737          	lui	a4,0x10404
e00005a2:	474c                	lw	a1,12(a4)
e00005a4:	4b10                	lw	a2,16(a4)
	fault = !(*((ssptr_t*)shadow_stack.ptr) == address);
e00005a6:	ffc7a683          	lw	a3,-4(a5)
e00005aa:	ff87a703          	lw	a4,-8(a5)
	shadow_stack.ptr -= sizeof(ssptr_t) / sizeof(uint32_t);
e00005ae:	00000797          	auipc	a5,0x0
e00005b2:	1ea7a723          	sw	a0,494(a5) # e000079c <shadow_stack+0x8>
	fault = !(*((ssptr_t*)shadow_stack.ptr) == address);
e00005b6:	00b747b3          	xor	a5,a4,a1
e00005ba:	00c6c733          	xor	a4,a3,a2
e00005be:	8fd9                	or	a5,a5,a4
e00005c0:	00f037b3          	snez	a5,a5
e00005c4:	b745                	j	e0000564 <external_irq_handler+0x44>
	return shadow_stack.ptr == shadow_stack.limit;
e00005c6:	00000797          	auipc	a5,0x0
e00005ca:	1ce78793          	addi	a5,a5,462 # e0000794 <shadow_stack>
e00005ce:	4798                	lw	a4,8(a5)
		if (shadow_stack_is_full()) {
e00005d0:	43d4                	lw	a3,4(a5)
e00005d2:	02e68063          	beq	a3,a4,e00005f2 <external_irq_handler+0xd2>
e00005d6:	00870693          	addi	a3,a4,8 # 10404008 <tohost+0x103e4000>
	return *(ssptr_t*)(MAILBOX_REG_DATA + 1);
e00005da:	104047b7          	lui	a5,0x10404
e00005de:	43c8                	lw	a0,4(a5)
e00005e0:	478c                	lw	a1,8(a5)
	shadow_stack.ptr += sizeof(ssptr_t) / sizeof(uint32_t);
e00005e2:	4781                	li	a5,0
	*((ssptr_t*)shadow_stack.ptr) = address;
e00005e4:	c308                	sw	a0,0(a4)
e00005e6:	c34c                	sw	a1,4(a4)
	shadow_stack.ptr += sizeof(ssptr_t) / sizeof(uint32_t);
e00005e8:	00000717          	auipc	a4,0x0
e00005ec:	1ad72a23          	sw	a3,436(a4) # e000079c <shadow_stack+0x8>
e00005f0:	bf95                	j	e0000564 <external_irq_handler+0x44>
		shadow_stack.heap[i] = shadow_stack.base[i];
e00005f2:	47cc                	lw	a1,12(a5)
e00005f4:	439c                	lw	a5,0(a5)
e00005f6:	872e                	mv	a4,a1
e00005f8:	10078613          	addi	a2,a5,256 # 10404100 <tohost+0x103e40f8>
e00005fc:	4394                	lw	a3,0(a5)
e00005fe:	0711                	addi	a4,a4,4
e0000600:	0791                	addi	a5,a5,4
e0000602:	fed72e23          	sw	a3,-4(a4)
	for (i=0; i<size; i++) {
e0000606:	fec79be3          	bne	a5,a2,e00005fc <external_irq_handler+0xdc>
	shadow_stack.heap += size;
e000060a:	10058593          	addi	a1,a1,256
e000060e:	00000717          	auipc	a4,0x0
e0000612:	18b72923          	sw	a1,402(a4) # e00007a0 <shadow_stack+0xc>
e0000616:	e00106b7          	lui	a3,0xe0010
e000061a:	06a1                	addi	a3,a3,8
e000061c:	e0010737          	lui	a4,0xe0010
e0000620:	bf6d                	j	e00005da <external_irq_handler+0xba>
		shadow_stack.base[i] = (shadow_stack.heap - i - 1)[i];
e0000622:	4750                	lw	a2,12(a4)
e0000624:	400006b7          	lui	a3,0x40000
e0000628:	10078513          	addi	a0,a5,256
e000062c:	16fd                	addi	a3,a3,-1
e000062e:	400005b7          	lui	a1,0x40000
e0000632:	00269713          	slli	a4,a3,0x2
e0000636:	9732                	add	a4,a4,a2
e0000638:	4318                	lw	a4,0(a4)
e000063a:	0791                	addi	a5,a5,4
e000063c:	96ae                	add	a3,a3,a1
e000063e:	fee7ae23          	sw	a4,-4(a5)
	for (i=0; i<size; i++) {
e0000642:	fef518e3          	bne	a0,a5,e0000632 <external_irq_handler+0x112>
	shadow_stack.heap -= size;
e0000646:	e00107b7          	lui	a5,0xe0010
e000064a:	f0060613          	addi	a2,a2,-256
e000064e:	0f878513          	addi	a0,a5,248 # e00100f8 <pulp__FC+0xe00100f9>
e0000652:	00000717          	auipc	a4,0x0
e0000656:	14c72723          	sw	a2,334(a4) # e00007a0 <shadow_stack+0xc>
e000065a:	10078793          	addi	a5,a5,256
e000065e:	b781                	j	e000059e <external_irq_handler+0x7e>

e0000660 <default_exc_handler>:
  jal x0, sleep_loop //exc handler
e0000660:	0760006f          	j	e00006d6 <sleep_loop>

e0000664 <reset_handler>:
  mv  x1, x0
e0000664:	00000093          	li	ra,0
  mv  x2, x1
e0000668:	8106                	mv	sp,ra
  mv  x3, x1
e000066a:	8186                	mv	gp,ra
  mv  x4, x1
e000066c:	8206                	mv	tp,ra
  mv  x5, x1
e000066e:	8286                	mv	t0,ra
  mv  x6, x1
e0000670:	8306                	mv	t1,ra
  mv  x7, x1
e0000672:	8386                	mv	t2,ra
  mv  x8, x1
e0000674:	8406                	mv	s0,ra
  mv  x9, x1
e0000676:	8486                	mv	s1,ra
  mv x10, x1
e0000678:	8506                	mv	a0,ra
  mv x11, x1
e000067a:	8586                	mv	a1,ra
  mv x12, x1
e000067c:	8606                	mv	a2,ra
  mv x13, x1
e000067e:	8686                	mv	a3,ra
  mv x14, x1
e0000680:	8706                	mv	a4,ra
  mv x15, x1
e0000682:	8786                	mv	a5,ra
  mv x16, x1
e0000684:	8806                	mv	a6,ra
  mv x17, x1
e0000686:	8886                	mv	a7,ra
  mv x18, x1
e0000688:	8906                	mv	s2,ra
  mv x19, x1
e000068a:	8986                	mv	s3,ra
  mv x20, x1
e000068c:	8a06                	mv	s4,ra
  mv x21, x1
e000068e:	8a86                	mv	s5,ra
  mv x22, x1
e0000690:	8b06                	mv	s6,ra
  mv x23, x1
e0000692:	8b86                	mv	s7,ra
  mv x24, x1
e0000694:	8c06                	mv	s8,ra
  mv x25, x1
e0000696:	8c86                	mv	s9,ra
  mv x26, x1
e0000698:	8d06                	mv	s10,ra
  mv x27, x1
e000069a:	8d86                	mv	s11,ra
  mv x28, x1
e000069c:	8e06                	mv	t3,ra
  mv x29, x1
e000069e:	8e86                	mv	t4,ra
  mv x30, x1
e00006a0:	8f06                	mv	t5,ra
  mv x31, x1
e00006a2:	8f86                	mv	t6,ra
  la   x2, _stack_start
e00006a4:	00010117          	auipc	sp,0x10
e00006a8:	95c10113          	addi	sp,sp,-1700 # e0010000 <_stack_start>

e00006ac <_start>:
  la x26, _bss_start
e00006ac:	00000d17          	auipc	s10,0x0
e00006b0:	0f8d0d13          	addi	s10,s10,248 # e00007a4 <_bss_end>
  la x27, _bss_end
e00006b4:	00000d97          	auipc	s11,0x0
e00006b8:	0f0d8d93          	addi	s11,s11,240 # e00007a4 <_bss_end>
  bge x26, x27, zero_loop_end
e00006bc:	01bd5763          	ble	s11,s10,e00006ca <main_entry>

e00006c0 <zero_loop>:
  sw x0, 0(x26)
e00006c0:	000d2023          	sw	zero,0(s10)
  addi x26, x26, 4
e00006c4:	0d11                	addi	s10,s10,4
  ble x26, x27, zero_loop
e00006c6:	ffaddde3          	ble	s10,s11,e00006c0 <zero_loop>

e00006ca <main_entry>:
  addi x10, x0, 0
e00006ca:	00000513          	li	a0,0
  addi x11, x0, 0
e00006ce:	00000593          	li	a1,0
  jal x1, main
e00006d2:	00a000ef          	jal	ra,e00006dc <main>

e00006d6 <sleep_loop>:
  wfi
e00006d6:	10500073          	wfi
  j sleep_loop
e00006da:	bff5                	j	e00006d6 <sleep_loop>

e00006dc <main>:
 * Main
 * ===========================================================================*/

int 
main(int argc, char **argv)
{
e00006dc:	1141                	addi	sp,sp,-16
#else
	//set_flls();
	int baud_rate = 115200;
	int test_freq = 100000000;
#endif
	uart_set_cfg(
e00006de:	45ed                	li	a1,27
e00006e0:	4501                	li	a0,0
{
e00006e2:	c606                	sw	ra,12(sp)
	uart_set_cfg(
e00006e4:	3e65                	jal	e000029c <uart_set_cfg>
		0,
		(test_freq/baud_rate) >> 4
	);

	printf("[IBEX] Shadow stack, 64 bit, 1 ISR, call\n");
e00006e6:	00000517          	auipc	a0,0x0
e00006ea:	07250513          	addi	a0,a0,114 # e0000758 <main+0x7c>
e00006ee:	39a1                	jal	e0000346 <printf>
	uart_wait_tx_done();
e00006f0:	3915                	jal	e0000324 <uart_wait_tx_done>
	uint32_t          *ptr       = NULL;
	
	// Initialize the shadow stack memory content. This is required to run
	// the tests on QuestaSim, otherwise reading the OpenTitan SRAM returns
	// 'X' and the simulation crashes.
	ptr = SHADOWSTACK_REG_BASE;
e00006f2:	e00107b7          	lui	a5,0xe0010
	while (ptr != SHADOWSTACK_REG_LIMIT) {
e00006f6:	10078713          	addi	a4,a5,256 # e0010100 <pulp__FC+0xe0010101>
		*ptr = 0;
e00006fa:	0007a023          	sw	zero,0(a5)
		ptr += 1;
e00006fe:	0791                	addi	a5,a5,4
	while (ptr != SHADOWSTACK_REG_LIMIT) {
e0000700:	fee79de3          	bne	a5,a4,e00006fa <main+0x1e>
	}

	// Set the Machine Trap-Vector base address to 0xe0000000 and configure the
	// core to serve interrupt in vectorized mode.
	val = 0xe0000001;
	asm volatile("csrw mtvec, %0\n" : : "r"(val));
e0000704:	e00007b7          	lui	a5,0xe0000
e0000708:	0785                	addi	a5,a5,1
e000070a:	30579073          	csrw	mtvec,a5

	// Enable global and external interrupts on IBEX.
	val = 0x00001808;
	asm volatile("csrw  mstatus, %0\n" : : "r"(val));
e000070e:	6789                	lui	a5,0x2
e0000710:	80878793          	addi	a5,a5,-2040 # 1808 <_min_stack-0x7f8>
e0000714:	30079073          	csrw	mstatus,a5
	val = 0x00000800;
	asm volatile("csrw  mie, %0\n"     : : "r"(val));
e0000718:	6785                	lui	a5,0x1
e000071a:	80078793          	addi	a5,a5,-2048 # 800 <_min_stack-0x1800>
e000071e:	30479073          	csrw	0x304,a5

	// Configure PLIC to enable MailBox interrupt and setting its priority to 1.
	*plic_prio = 1;
e0000722:	c80007b7          	lui	a5,0xc8000
e0000726:	4705                	li	a4,1
e0000728:	10e7a823          	sw	a4,272(a5) # c8000110 <pulp__FC+0xc8000111>
	*plic_en = 0x00000010;
e000072c:	c80027b7          	lui	a5,0xc8002
e0000730:	4741                	li	a4,16
e0000732:	c798                	sw	a4,8(a5)

	// React to CVA6 command executing the `external_irq_handler` function.
	while(1) {
		asm volatile ("wfi");
e0000734:	10500073          	wfi
e0000738:	10500073          	wfi
e000073c:	bfe5                	j	e0000734 <main+0x58>

Disassembly of section .rodata:

e0000740 <.rodata>:
e0000740:	6e28                	flw	fa0,88(a2)
e0000742:	6c75                	lui	s8,0x1d
e0000744:	296c                	fld	fa1,208(a0)
e0000746:	0000                	unimp
e0000748:	5845                	li	a6,-15
e000074a:	54504543          	fmadd.h	a0,zero,t0,a0,rmm
e000074e:	4f49                	li	t5,18
e0000750:	214e                	fld	ft2,208(sp)
e0000752:	2121                	jal	e0000b5a <_bss_end+0x3b6>
e0000754:	0a0d                	addi	s4,s4,3
e0000756:	0000                	unimp
e0000758:	4542495b          	p.mac.zl.sl	s2,tp,s4,sp
e000075c:	5d58                	lw	a4,60(a0)
e000075e:	5320                	lw	s0,96(a4)
e0000760:	6168                	flw	fa0,68(a0)
e0000762:	6f64                	flw	fs1,92(a4)
e0000764:	74732077          	0x74732077
e0000768:	6361                	lui	t1,0x18
e000076a:	36202c6b          	0x36202c6b
e000076e:	2034                	fld	fa3,64(s0)
e0000770:	6962                	flw	fs2,24(sp)
e0000772:	2c74                	fld	fa3,216(s0)
e0000774:	3120                	fld	fs0,96(a0)
e0000776:	4920                	lw	s0,80(a0)
e0000778:	202c5253          	0x202c5253
e000077c:	6c6c6163          	bltu	s8,t1,e0000e3e <_bss_end+0x69a>
e0000780:	000a                	0xa
	...

Disassembly of section .data:

e0000784 <remu10_table>:
e0000784:	0100                	addi	s0,sp,128
e0000786:	0202                	slli	tp,tp,0x0
e0000788:	05040303          	lb	t1,80(s0)
e000078c:	0605                	addi	a2,a2,1
e000078e:	08080707          	0x8080707
e0000792:	0009                	c.addi	zero,2

e0000794 <shadow_stack>:
e0000794:	0000                	unimp
e0000796:	e001                	bnez	s0,e0000796 <shadow_stack+0x2>
e0000798:	0100                	addi	s0,sp,128
e000079a:	e001                	bnez	s0,e000079a <shadow_stack+0x6>
e000079c:	0000                	unimp
e000079e:	e001                	bnez	s0,e000079e <shadow_stack+0xa>
e00007a0:	0000                	unimp
e00007a2:	8001                	srli	s0,s0,0x0

Disassembly of section .stack:

e0008000 <_stack-0x2000>:
	...

Disassembly of section .debug_frame:

00000000 <.debug_frame>:
   0:	000c                	addi	a1,sp,0
   2:	0000                	unimp
   4:	ffff                	0xffff
   6:	ffff                	0xffff
   8:	7c010003          	lb	zero,1984(sp)
   c:	0c01                	addi	s8,s8,0
   e:	0002                	0x2
  10:	000c                	addi	a1,sp,0
  12:	0000                	unimp
  14:	0000                	unimp
  16:	0000                	unimp
  18:	0084                	addi	s1,sp,64
  1a:	e000                	fsw	fs0,0(s0)
  1c:	0010                	addi	a2,sp,0
  1e:	0000                	unimp
  20:	0050                	addi	a2,sp,4
  22:	0000                	unimp
  24:	0000                	unimp
  26:	0000                	unimp
  28:	0094                	addi	a3,sp,64
  2a:	e000                	fsw	fs0,0(s0)
  2c:	00d2                	slli	ra,ra,0x14
  2e:	0000                	unimp
  30:	0204                	addi	s1,sp,256
  32:	0000                	unimp
  34:	0e00                	addi	s0,sp,784
  36:	0420                	addi	s0,sp,520
  38:	000a                	0xa
  3a:	0000                	unimp
  3c:	0389                	addi	t2,t2,2
  3e:	0492                	slli	s1,s1,0x4
  40:	0181                	addi	gp,gp,0
  42:	0288                	addi	a0,sp,320
  44:	4c040593          	addi	a1,s0,1216
  48:	0000                	unimp
  4a:	0a00                	addi	s0,sp,272
  4c:	04c1                	addi	s1,s1,16
  4e:	0002                	0x2
  50:	0000                	unimp
  52:	04c8                	addi	a0,sp,580
  54:	0002                	0x2
  56:	0000                	unimp
  58:	04c9                	addi	s1,s1,18
  5a:	0002                	0x2
  5c:	0000                	unimp
  5e:	04d2                	slli	s1,s1,0x14
  60:	0002                	0x2
  62:	0000                	unimp
  64:	000204d3          	fadd.s	fs1,ft4,ft0,rne
  68:	0000                	unimp
  6a:	000e                	0xe
  6c:	0204                	addi	s1,sp,256
  6e:	0000                	unimp
  70:	0b00                	addi	s0,sp,400
  72:	0000                	unimp
  74:	0060                	addi	s0,sp,12
  76:	0000                	unimp
  78:	0000                	unimp
  7a:	0000                	unimp
  7c:	0166                	slli	sp,sp,0x19
  7e:	e000                	fsw	fs0,0(s0)
  80:	0136                	slli	sp,sp,0xd
  82:	0000                	unimp
  84:	0204                	addi	s1,sp,256
  86:	0000                	unimp
  88:	0e00                	addi	s0,sp,784
  8a:	0440                	addi	s0,sp,516
  8c:	0006                	0x6
  8e:	0000                	unimp
  90:	0181                	addi	gp,gp,0
  92:	0288                	addi	a0,sp,320
  94:	0389                	addi	t2,t2,2
  96:	4e04                	lw	s1,24(a2)
  98:	0000                	unimp
  9a:	0a00                	addi	s0,sp,272
  9c:	04c1                	addi	s1,s1,16
  9e:	0002                	0x2
  a0:	0000                	unimp
  a2:	04c8                	addi	a0,sp,580
  a4:	0002                	0x2
  a6:	0000                	unimp
  a8:	04c9                	addi	s1,s1,18
  aa:	0002                	0x2
  ac:	0000                	unimp
  ae:	000e                	0xe
  b0:	0204                	addi	s1,sp,256
  b2:	0000                	unimp
  b4:	0b00                	addi	s0,sp,400
  b6:	b604                	fsd	fs1,40(a2)
  b8:	0000                	unimp
  ba:	0a00                	addi	s0,sp,272
  bc:	04c1                	addi	s1,s1,16
  be:	0002                	0x2
  c0:	0000                	unimp
  c2:	04c8                	addi	a0,sp,580
  c4:	0002                	0x2
  c6:	0000                	unimp
  c8:	04c9                	addi	s1,s1,18
  ca:	0002                	0x2
  cc:	0000                	unimp
  ce:	000e                	0xe
  d0:	0204                	addi	s1,sp,256
  d2:	0000                	unimp
  d4:	0b00                	addi	s0,sp,400
  d6:	0000                	unimp
  d8:	000c                	addi	a1,sp,0
  da:	0000                	unimp
  dc:	0000                	unimp
  de:	0000                	unimp
  e0:	029c                	addi	a5,sp,320
  e2:	e000                	fsw	fs0,0(s0)
  e4:	002e                	0x2e
  e6:	0000                	unimp
  e8:	000c                	addi	a1,sp,0
  ea:	0000                	unimp
  ec:	0000                	unimp
  ee:	0000                	unimp
  f0:	02ca                	slli	t0,t0,0x12
  f2:	e000                	fsw	fs0,0(s0)
  f4:	0038                	addi	a4,sp,8
  f6:	0000                	unimp
  f8:	000c                	addi	a1,sp,0
  fa:	0000                	unimp
  fc:	0000                	unimp
  fe:	0000                	unimp
 100:	0302                	slli	t1,t1,0x0
 102:	e000                	fsw	fs0,0(s0)
 104:	0012                	0x12
 106:	0000                	unimp
 108:	000c                	addi	a1,sp,0
 10a:	0000                	unimp
 10c:	0000                	unimp
 10e:	0000                	unimp
 110:	0314                	addi	a3,sp,384
 112:	e000                	fsw	fs0,0(s0)
 114:	0010                	addi	a2,sp,0
 116:	0000                	unimp
 118:	000c                	addi	a1,sp,0
 11a:	0000                	unimp
 11c:	0000                	unimp
 11e:	0000                	unimp
 120:	0324                	addi	s1,sp,392
 122:	e000                	fsw	fs0,0(s0)
 124:	000e                	0xe
 126:	0000                	unimp
 128:	000c                	addi	a1,sp,0
 12a:	0000                	unimp
 12c:	0000                	unimp
 12e:	0000                	unimp
 130:	0332                	slli	t1,t1,0xc
 132:	e000                	fsw	fs0,0(s0)
 134:	0014                	addi	a3,sp,0
 136:	0000                	unimp
 138:	0088                	addi	a0,sp,64
 13a:	0000                	unimp
 13c:	0000                	unimp
 13e:	0000                	unimp
 140:	0346                	slli	t1,t1,0x11
 142:	e000                	fsw	fs0,0(s0)
 144:	0196                	slli	gp,gp,0x5
 146:	0000                	unimp
 148:	0204                	addi	s1,sp,256
 14a:	0000                	unimp
 14c:	0e00                	addi	s0,sp,784
 14e:	0460                	addi	s0,sp,524
 150:	0018                	addi	a4,sp,0
 152:	0000                	unimp
 154:	0e94                	addi	a3,sp,848
 156:	0981                	addi	s3,s3,0
 158:	0a88                	addi	a0,sp,336
 15a:	0b89                	addi	s7,s7,2
 15c:	0c92                	slli	s9,s9,0x4
 15e:	0f950d93          	addi	s11,a0,249
 162:	1096                	slli	ra,ra,0x25
 164:	12981197          	auipc	gp,0x12981
 168:	1399                	addi	t2,t2,-26
 16a:	149a                	slli	s1,s1,0x26
 16c:	0004                	addi	s1,sp,0
 16e:	0001                	nop
 170:	0a00                	addi	s0,sp,272
 172:	04c1                	addi	s1,s1,16
 174:	0002                	0x2
 176:	0000                	unimp
 178:	04c8                	addi	a0,sp,580
 17a:	0004                	addi	s1,sp,0
 17c:	0000                	unimp
 17e:	04c9                	addi	s1,s1,18
 180:	0002                	0x2
 182:	0000                	unimp
 184:	04d2                	slli	s1,s1,0x14
 186:	0002                	0x2
 188:	0000                	unimp
 18a:	000204d3          	fadd.s	fs1,ft4,ft0,rne
 18e:	0000                	unimp
 190:	04d4                	addi	a3,sp,580
 192:	0002                	0x2
 194:	0000                	unimp
 196:	04d5                	addi	s1,s1,21
 198:	0002                	0x2
 19a:	0000                	unimp
 19c:	04d6                	slli	s1,s1,0x15
 19e:	0002                	0x2
 1a0:	0000                	unimp
 1a2:	000204d7          	pv.add.h	s1,tp,zero
 1a6:	0000                	unimp
 1a8:	04d8                	addi	a4,sp,580
 1aa:	0002                	0x2
 1ac:	0000                	unimp
 1ae:	04d9                	addi	s1,s1,22
 1b0:	0002                	0x2
 1b2:	0000                	unimp
 1b4:	04da                	slli	s1,s1,0x16
 1b6:	0002                	0x2
 1b8:	0000                	unimp
 1ba:	000e                	0xe
 1bc:	0204                	addi	s1,sp,256
 1be:	0000                	unimp
 1c0:	0b00                	addi	s0,sp,400
 1c2:	0000                	unimp
 1c4:	000c                	addi	a1,sp,0
 1c6:	0000                	unimp
 1c8:	0000                	unimp
 1ca:	0000                	unimp
 1cc:	04dc                	addi	a5,sp,580
 1ce:	e000                	fsw	fs0,0(s0)
 1d0:	000a                	0xa
 1d2:	0000                	unimp
 1d4:	000c                	addi	a1,sp,0
 1d6:	0000                	unimp
 1d8:	0000                	unimp
 1da:	0000                	unimp
 1dc:	04e6                	slli	s1,s1,0x19
 1de:	e000                	fsw	fs0,0(s0)
 1e0:	003a                	0x3a
 1e2:	0000                	unimp
 1e4:	000c                	addi	a1,sp,0
 1e6:	0000                	unimp
 1e8:	ffff                	0xffff
 1ea:	ffff                	0xffff
 1ec:	7c010003          	lb	zero,1984(sp)
 1f0:	0c01                	addi	s8,s8,0
 1f2:	0002                	0x2
 1f4:	0060                	addi	s0,sp,12
 1f6:	0000                	unimp
 1f8:	01e4                	addi	s1,sp,204
 1fa:	0000                	unimp
 1fc:	0520                	addi	s0,sp,648
 1fe:	e000                	fsw	fs0,0(s0)
 200:	0140                	addi	s0,sp,132
 202:	0000                	unimp
 204:	0204                	addi	s1,sp,256
 206:	0000                	unimp
 208:	0e00                	addi	s0,sp,784
 20a:	0420                	addi	s0,sp,520
 20c:	0002                	0x2
 20e:	0000                	unimp
 210:	0a04068f          	0xa04068f
 214:	0000                	unimp
 216:	8d00                	0x8d00
 218:	8e04                	0x8e04
 21a:	8a05                	andi	a2,a2,1
 21c:	0401                	addi	s0,s0,0
 21e:	0006                	0x6
 220:	0000                	unimp
 222:	038c028b          	p.lb	t0,56(s8!) # 1d038 <_stack_len+0x15038>
 226:	4604                	lw	s1,8(a2)
 228:	0000                	unimp
 22a:	0a00                	addi	s0,sp,272
 22c:	04ca                	slli	s1,s1,0x12
 22e:	0002                	0x2
 230:	0000                	unimp
 232:	000204cb          	fnmsub.s	fs1,ft4,ft0,ft0,rne
 236:	0000                	unimp
 238:	04cc                	addi	a1,sp,580
 23a:	0002                	0x2
 23c:	0000                	unimp
 23e:	04cd                	addi	s1,s1,19
 240:	0002                	0x2
 242:	0000                	unimp
 244:	04ce                	slli	s1,s1,0x13
 246:	0002                	0x2
 248:	0000                	unimp
 24a:	000204cf          	fnmadd.s	fs1,ft4,ft0,ft0,rne
 24e:	0000                	unimp
 250:	000e                	0xe
 252:	0404                	addi	s1,sp,512
 254:	0000                	unimp
 256:	0b00                	addi	s0,sp,400
 258:	001c                	addi	a5,sp,0
 25a:	0000                	unimp
 25c:	01e4                	addi	s1,sp,204
 25e:	0000                	unimp
 260:	06dc                	addi	a5,sp,836
 262:	e000                	fsw	fs0,0(s0)
 264:	0062                	0x62
 266:	0000                	unimp
 268:	0204                	addi	s1,sp,256
 26a:	0000                	unimp
 26c:	0e00                	addi	s0,sp,784
 26e:	0410                	addi	a2,sp,512
 270:	0006                	0x6
 272:	0000                	unimp
 274:	0181                	addi	gp,gp,0
	...

Disassembly of section .debug_info:

00000000 <.debug_info>:
   0:	000008e3          	beqz	zero,810 <_min_stack-0x17f0>
   4:	0004                	addi	s1,sp,0
   6:	0000                	unimp
   8:	0000                	unimp
   a:	0104                	addi	s1,sp,128
   c:	000001ef          	jal	gp,c <_min_stack-0x1ff4>
  10:	8d0c                	0x8d0c
  12:	0000                	unimp
  14:	4d00                	lw	s0,24(a0)
  16:	0001                	nop
  18:	8400                	0x8400
  1a:	0000                	unimp
  1c:	9ce0                	0x9ce0
  1e:	0004                	addi	s1,sp,0
  20:	0000                	unimp
  22:	0000                	unimp
  24:	0200                	addi	s0,sp,256
  26:	0295                	addi	t0,t0,5
  28:	0000                	unimp
  2a:	2802                	fld	fa6,0(sp)
  2c:	0030                	addi	a2,sp,8
  2e:	0000                	unimp
  30:	025b0403          	lb	s0,37(s6)
  34:	0000                	unimp
  36:	9c02                	jalr	s8
  38:	0002                	0x2
  3a:	0200                	addi	s0,sp,256
  3c:	00002563          	p.beqimm	zero,0,46 <_min_stack-0x1fba>
  40:	0400                	addi	s0,sp,512
  42:	0504                	addi	s1,sp,640
  44:	6e69                	lui	t3,0x1a
  46:	0074                	addi	a3,sp,12
  48:	0405                	addi	s0,s0,1
  4a:	00014007          	0x14007
  4e:	0500                	addi	s0,sp,640
  50:	0508                	addi	a0,sp,640
  52:	0040                	addi	s0,sp,4
  54:	0000                	unimp
  56:	1005                	c.addi	zero,-31
  58:	0a04                	addi	s1,sp,272
  5a:	0001                	nop
  5c:	0500                	addi	s0,sp,640
  5e:	0601                	addi	a2,a2,0
  60:	0118                	addi	a4,sp,128
  62:	0000                	unimp
  64:	0205                	addi	tp,tp,1
  66:	0005                	c.addi	zero,1
  68:	0000                	unimp
  6a:	0500                	addi	s0,sp,640
  6c:	0504                	addi	s1,sp,640
  6e:	0045                	c.addi	zero,17
  70:	0000                	unimp
  72:	0105                	addi	sp,sp,1
  74:	1608                	addi	a0,sp,800
  76:	0001                	nop
  78:	0200                	addi	s0,sp,256
  7a:	01b9                	addi	gp,gp,14
  7c:	0000                	unimp
  7e:	00843103          	0x843103
  82:	0000                	unimp
  84:	0205                	addi	tp,tp,1
  86:	0001c707          	0x1c707
  8a:	0500                	addi	s0,sp,640
  8c:	0704                	addi	s1,sp,896
  8e:	0000013b          	0x13b
  92:	0805                	addi	a6,a6,1
  94:	00013607          	fld	fa2,0(sp)
  98:	0600                	addi	s0,sp,768
  9a:	00a9                	addi	ra,ra,10
  9c:	0000                	unimp
  9e:	00a9                	addi	ra,ra,10
  a0:	0000                	unimp
  a2:	00004807          	0x4807
  a6:	0f00                	addi	s0,sp,912
  a8:	0500                	addi	s0,sp,640
  aa:	0801                	addi	a6,a6,0
  ac:	011f 0000 a908      	0xa9080000011f
  b2:	0000                	unimp
  b4:	0900                	addi	s0,sp,144
  b6:	004e                	0x4e
  b8:	0000                	unimp
  ba:	7f01                	lui	t5,0xfffe0
  bc:	0099                	addi	ra,ra,6
  be:	0000                	unimp
  c0:	0305                	addi	t1,t1,1
  c2:	0784                	addi	s1,sp,960
  c4:	e000                	fsw	fs0,0(s0)
  c6:	c20a                	sw	sp,4(sp)
  c8:	0001                	nop
  ca:	0100                	addi	s0,sp,128
  cc:	0145                	addi	sp,sp,17
  ce:	0041                	c.addi	zero,16
  d0:	0000                	unimp
  d2:	04e6                	slli	s1,s1,0x19
  d4:	e000                	fsw	fs0,0(s0)
  d6:	003a                	0x3a
  d8:	0000                	unimp
  da:	9c01                	0x9c01
  dc:	015f 0000 730b      	0x730b0000015f
  e2:	0100                	addi	s0,sp,128
  e4:	0145                	addi	sp,sp,17
  e6:	015f 0000 0000      	0x15f
  ec:	0000                	unimp
  ee:	690c                	flw	fa1,16(a0)
  f0:	0100                	addi	s0,sp,128
  f2:	00410147          	fmsub.s	ft2,ft2,ft4,ft0,rne
  f6:	0000                	unimp
  f8:	003a                	0x3a
  fa:	0000                	unimp
  fc:	820d                	srli	a2,a2,0x3
  fe:	0004                	addi	s1,sp,0
 100:	f000                	fsw	fs0,32(s0)
 102:	0004                	addi	s1,sp,0
 104:	10e0                	addi	s0,sp,108
 106:	0001                	nop
 108:	0100                	addi	s0,sp,128
 10a:	014a                	slli	sp,sp,0x12
 10c:	00000133          	add	sp,zero,zero
 110:	920e                	add	tp,tp,gp
 112:	0004                	addi	s1,sp,0
 114:	6500                	flw	fs0,8(a0)
 116:	0000                	unimp
 118:	0f00                	addi	s0,sp,912
 11a:	000004f3          	0x4f3
 11e:	04f0                	addi	a2,sp,588
 120:	e000                	fsw	fs0,0(s0)
 122:	0110                	addi	a2,sp,128
 124:	0000                	unimp
 126:	8b01                	andi	a4,a4,0
 128:	ff0e                	fsw	ft3,188(sp)
 12a:	0004                	addi	s1,sp,0
 12c:	8e00                	0x8e00
 12e:	0000                	unimp
 130:	0000                	unimp
 132:	1000                	addi	s0,sp,32
 134:	0482                	slli	s1,s1,0x0
 136:	0000                	unimp
 138:	050a                	slli	a0,a0,0x2
 13a:	e000                	fsw	fs0,0(s0)
 13c:	0010                	addi	a2,sp,0
 13e:	0000                	unimp
 140:	4c01                	li	s8,0
 142:	1101                	addi	sp,sp,-32
 144:	0492                	slli	s1,s1,0x4
 146:	0000                	unimp
 148:	f312                	fsw	ft4,164(sp)
 14a:	0004                	addi	s1,sp,0
 14c:	0a00                	addi	s0,sp,272
 14e:	0005                	c.addi	zero,1
 150:	10e0                	addi	s0,sp,108
 152:	0000                	unimp
 154:	0100                	addi	s0,sp,128
 156:	04ff118b          	p.lh	gp,79(t5!) # fffe004f <pulp__FC+0xfffe0050>
 15a:	0000                	unimp
 15c:	0000                	unimp
 15e:	1300                	addi	s0,sp,416
 160:	b004                	fsd	fs1,32(s0)
 162:	0000                	unimp
 164:	0a00                	addi	s0,sp,272
 166:	00000077          	0x77
 16a:	3601                	jal	fffffc6a <pulp__FC+0xfffffc6b>
 16c:	4101                	li	sp,0
 16e:	0000                	unimp
 170:	4600                	lw	s0,8(a2)
 172:	96e00003          	lb	zero,-1682(zero) # fffff96e <pulp__FC+0xfffff96f>
 176:	0001                	nop
 178:	0100                	addi	s0,sp,128
 17a:	c59c                	sw	a5,8(a1)
 17c:	0002                	0x2
 17e:	1400                	addi	s0,sp,544
 180:	02ae                	slli	t0,t0,0xb
 182:	0000                	unimp
 184:	3601                	jal	fffffc84 <pulp__FC+0xfffffc85>
 186:	5f01                	li	t5,-32
 188:	0001                	nop
 18a:	a100                	fsd	fs0,0(a0)
 18c:	0000                	unimp
 18e:	1500                	addi	s0,sp,672
 190:	7016                	flw	ft0,100(sp)
 192:	38010063          	beqz	sp,512 <_min_stack-0x1aee>
 196:	4101                	li	sp,0
 198:	0000                	unimp
 19a:	1700                	addi	s0,sp,928
 19c:	6176                	flw	ft2,92(sp)
 19e:	0100                	addi	s0,sp,128
 1a0:	0139                	addi	sp,sp,14
 1a2:	0036                	0x36
 1a4:	0000                	unimp
 1a6:	7fac9103          	lh	sp,2042(s9)
 1aa:	c518                	sw	a4,8(a0)
 1ac:	0002                	0x2
 1ae:	6e00                	flw	fs0,24(a2)
 1b0:	d0e00003          	lb	zero,-754(zero) # fffffd0e <pulp__FC+0xfffffd0f>
 1b4:	0000                	unimp
 1b6:	0100                	addi	s0,sp,128
 1b8:	013d                	addi	sp,sp,15
 1ba:	d50e                	sw	gp,168(sp)
 1bc:	0002                	0x2
 1be:	db00                	sw	s0,48(a4)
 1c0:	0000                	unimp
 1c2:	0e00                	addi	s0,sp,784
 1c4:	000002eb          	0x2eb
 1c8:	000000fb          	lp.starti	x1,1c8 <_min_stack-0x1e38>
 1cc:	e00e                	fsw	ft3,0(sp)
 1ce:	0002                	0x2
 1d0:	1900                	addi	s0,sp,176
 1d2:	0001                	nop
 1d4:	1900                	addi	s0,sp,176
 1d6:	00d0                	addi	a2,sp,68
 1d8:	0000                	unimp
 1da:	f51a                	fsw	ft6,168(sp)
 1dc:	0002                	0x2
 1de:	9300                	0x9300
 1e0:	0001                	nop
 1e2:	1a00                	addi	s0,sp,304
 1e4:	0300                	addi	s0,sp,384
 1e6:	0000                	unimp
 1e8:	01d4                	addi	a3,sp,196
 1ea:	0000                	unimp
 1ec:	0b1a                	slli	s6,s6,0x6
 1ee:	4d000003          	lb	zero,1232(zero) # 4d0 <_min_stack-0x1b30>
 1f2:	0002                	0x2
 1f4:	1b00                	addi	s0,sp,432
 1f6:	0315                	addi	t1,t1,5
 1f8:	0000                	unimp
 1fa:	7fa89103          	lh	sp,2042(a7)
 1fe:	201c                	fld	fa5,0(s0)
 200:	a8000003          	lb	zero,-1408(zero) # fffffa80 <pulp__FC+0xfffffa81>
 204:	1de00003          	lb	zero,478(zero) # 1de <_min_stack-0x1e22>
 208:	0328                	addi	a0,sp,392
 20a:	0000                	unimp
 20c:	00f0                	addi	a2,sp,76
 20e:	0000                	unimp
 210:	0225                	addi	tp,tp,9
 212:	0000                	unimp
 214:	0003291b          	0x3291b
 218:	0100                	addi	s0,sp,128
 21a:	1e5a                	slli	t3,t3,0x36
 21c:	0488                	addi	a0,sp,576
 21e:	e000                	fsw	fs0,0(s0)
 220:	0000060b          	p.lb	a2,0(zero!) # 0 <_min_stack-0x2000>
 224:	1f00                	addi	s0,sp,944
 226:	0461                	addi	s0,s0,24
 228:	0000                	unimp
 22a:	03a8                	addi	a0,sp,456
 22c:	e000                	fsw	fs0,0(s0)
 22e:	0002                	0x2
 230:	0000                	unimp
 232:	2d01                	jal	842 <_min_stack-0x17be>
 234:	5d01                	li	s10,-32
 236:	0002                	0x2
 238:	0e00                	addi	s0,sp,784
 23a:	0478                	addi	a4,sp,524
 23c:	0000                	unimp
 23e:	00000283          	lb	t0,0(zero) # 0 <_min_stack-0x2000>
 242:	6d0e                	flw	fs10,192(sp)
 244:	0004                	addi	s1,sp,0
 246:	9b00                	0x9b00
 248:	0002                	0x2
 24a:	2000                	fld	fs0,0(s0)
 24c:	03aa                	slli	t2,t2,0xa
 24e:	e000                	fsw	fs0,0(s0)
 250:	05ba                	slli	a1,a1,0xe
 252:	0000                	unimp
 254:	6d21                	lui	s10,0x8
 256:	0004                	addi	s1,sp,0
 258:	0100                	addi	s0,sp,128
 25a:	0030                	addi	a2,sp,8
 25c:	2200                	fld	fs0,0(a2)
 25e:	044a                	slli	s0,s0,0x12
 260:	e000                	fsw	fs0,0(s0)
 262:	0000060b          	p.lb	a2,0(zero!) # 0 <_min_stack-0x2000>
 266:	0272                	slli	tp,tp,0x1c
 268:	0000                	unimp
 26a:	035a0123          	sb	s5,34(s4)
 26e:	a891                	j	2c2 <_min_stack-0x1d3e>
 270:	007f                	0x7f
 272:	9c22                	add	s8,s8,s0
 274:	0004                	addi	s1,sp,0
 276:	56e0                	lw	s0,108(a3)
 278:	90000007          	0x90000007
 27c:	0002                	0x2
 27e:	2300                	fld	fs0,0(a4)
 280:	5b01                	li	s6,-32
 282:	3a01                	jal	fffffb92 <pulp__FC+0xfffffb93>
 284:	015c0123          	sb	s5,2(s8)
 288:	2331                	jal	794 <_min_stack-0x186c>
 28a:	5f01                	li	t5,-32
 28c:	0802                	slli	a6,a6,0x0
 28e:	0061                	c.addi	zero,24
 290:	b222                	fsd	fs0,288(sp)
 292:	0004                	addi	s1,sp,0
 294:	56e0                	lw	s0,108(a3)
 296:	ae000007          	0xae000007
 29a:	0002                	0x2
 29c:	2300                	fld	fs0,0(a4)
 29e:	5b01                	li	s6,-32
 2a0:	3a01                	jal	fffffbb0 <pulp__FC+0xfffffbb1>
 2a2:	015c0123          	sb	s5,2(s8)
 2a6:	2330                	fld	fa2,64(a4)
 2a8:	5f01                	li	t5,-32
 2aa:	0802                	slli	a6,a6,0x0
 2ac:	0061                	c.addi	zero,24
 2ae:	c820                	sw	s0,80(s0)
 2b0:	0004                	addi	s1,sp,0
 2b2:	56e0                	lw	s0,108(a3)
 2b4:	23000007          	0x23000007
 2b8:	5b01                	li	s6,-32
 2ba:	4001                	0x4001
 2bc:	015c0123          	sb	s5,2(s8)
 2c0:	0030                	addi	a2,sp,8
 2c2:	0000                	unimp
 2c4:	2400                	fld	fs0,8(s0)
 2c6:	0282                	slli	t0,t0,0x0
 2c8:	0000                	unimp
 2ca:	f201                	bnez	a2,1ca <_min_stack-0x1e36>
 2cc:	0041                	c.addi	zero,16
 2ce:	0000                	unimp
 2d0:	3501                	jal	d0 <_min_stack-0x1f30>
 2d2:	25000003          	lb	zero,592(zero) # 250 <_min_stack-0x1db0>
 2d6:	0074756f          	jal	a0,47adc <tohost+0x27ad4>
 2da:	f201                	bnez	a2,1da <_min_stack-0x1e26>
 2dc:	0335                	addi	t1,t1,13
 2de:	0000                	unimp
 2e0:	ae26                	fsd	fs1,280(sp)
 2e2:	0002                	0x2
 2e4:	0100                	addi	s0,sp,128
 2e6:	5ff2                	lw	t6,60(sp)
 2e8:	0001                	nop
 2ea:	2500                	fld	fs0,8(a0)
 2ec:	6176                	flw	ft2,92(sp)
 2ee:	0100                	addi	s0,sp,128
 2f0:	36f2                	fld	fa3,312(sp)
 2f2:	0000                	unimp
 2f4:	2700                	fld	fs0,8(a4)
 2f6:	00000027          	0x27
 2fa:	f401                	bnez	s0,202 <_min_stack-0x1dfe>
 2fc:	0041                	c.addi	zero,16
 2fe:	0000                	unimp
 300:	7028                	flw	fa0,96(s0)
 302:	6461                	lui	s0,0x18
 304:	0100                	addi	s0,sp,128
 306:	41f4                	lw	a3,68(a1)
 308:	0000                	unimp
 30a:	2800                	fld	fs0,16(s0)
 30c:	6370                	flw	fa2,68(a4)
 30e:	0100                	addi	s0,sp,128
 310:	41f5                	li	gp,29
 312:	0000                	unimp
 314:	2800                	fld	fs0,16(s0)
 316:	00726373          	csrrsi	t1,0x7,4
 31a:	f601                	bnez	a2,222 <_min_stack-0x1dde>
 31c:	0341                	addi	t1,t1,16
 31e:	0000                	unimp
 320:	6f29                	lui	t5,0xa
 322:	7475                	lui	s0,0xffffd
 324:	0100                	addi	s0,sp,128
 326:	012c                	addi	a1,sp,136
 328:	162a                	slli	a2,a2,0x2a
 32a:	0f010073          	0xf010073
 32e:	3b01                	jal	3e <_min_stack-0x1fc2>
 330:	00000003          	lb	zero,0(zero) # 0 <_min_stack-0x2000>
 334:	1300                	addi	s0,sp,416
 336:	3b04                	fld	fs1,48(a4)
 338:	13000003          	lb	zero,304(zero) # 130 <_min_stack-0x1ed0>
 33c:	a904                	fsd	fs1,16(a0)
 33e:	0000                	unimp
 340:	0600                	addi	s0,sp,768
 342:	00a9                	addi	ra,ra,10
 344:	0000                	unimp
 346:	0351                	addi	t1,t1,20
 348:	0000                	unimp
 34a:	00004807          	0x4807
 34e:	0100                	addi	s0,sp,128
 350:	2400                	fld	fs0,8(s0)
 352:	007e                	0x7e
 354:	0000                	unimp
 356:	b801                	j	fffffb66 <pulp__FC+0xfffffb67>
 358:	0041                	c.addi	zero,16
 35a:	0000                	unimp
 35c:	e701                	bnez	a4,364 <_min_stack-0x1c9c>
 35e:	25000003          	lb	zero,592(zero) # 250 <_min_stack-0x1db0>
 362:	0074756f          	jal	a0,47b68 <tohost+0x27b60>
 366:	b801                	j	fffffb76 <pulp__FC+0xfffffb77>
 368:	0335                	addi	t1,t1,13
 36a:	0000                	unimp
 36c:	6925                	lui	s2,0x9
 36e:	0100                	addi	s0,sp,128
 370:	41b8                	lw	a4,64(a1)
 372:	0000                	unimp
 374:	2500                	fld	fs0,8(a0)
 376:	0062                	0x62
 378:	b801                	j	fffffb88 <pulp__FC+0xfffffb89>
 37a:	0041                	c.addi	zero,16
 37c:	0000                	unimp
 37e:	7325                	lui	t1,0xfffe9
 380:	b8010067          	jr	-1152(sp)
 384:	0041                	c.addi	zero,16
 386:	0000                	unimp
 388:	2726                	fld	fa4,72(sp)
 38a:	0000                	unimp
 38c:	0100                	addi	s0,sp,128
 38e:	41b8                	lw	a4,64(a1)
 390:	0000                	unimp
 392:	2500                	fld	fs0,8(a0)
 394:	6170                	flw	fa2,68(a0)
 396:	0064                	addi	s1,sp,12
 398:	b801                	j	fffffba8 <pulp__FC+0xfffffba9>
 39a:	0041                	c.addi	zero,16
 39c:	0000                	unimp
 39e:	6826                	flw	fa6,72(sp)
 3a0:	0000                	unimp
 3a2:	0100                	addi	s0,sp,128
 3a4:	a9b8                	fsd	fa4,80(a1)
 3a6:	0000                	unimp
 3a8:	2700                	fld	fs0,8(a4)
 3aa:	01da                	slli	gp,gp,0x16
 3ac:	0000                	unimp
 3ae:	ba01                	j	fffffcbe <pulp__FC+0xfffffcbf>
 3b0:	000003e7          	jalr	t2,zero
 3b4:	7328                	flw	fa0,96(a4)
 3b6:	0100                	addi	s0,sp,128
 3b8:	00033bbb          	0x33bbb
 3bc:	2800                	fld	fs0,16(s0)
 3be:	656e                	flw	fa0,216(sp)
 3c0:	bc010067          	jr	-1088(sp)
 3c4:	0041                	c.addi	zero,16
 3c6:	0000                	unimp
 3c8:	7028                	flw	fa0,96(s0)
 3ca:	bc010063          	beqz	sp,fffff78a <pulp__FC+0xfffff78b>
 3ce:	0041                	c.addi	zero,16
 3d0:	0000                	unimp
 3d2:	7528                	flw	fa0,104(a0)
 3d4:	0100                	addi	s0,sp,128
 3d6:	48bd                	li	a7,15
 3d8:	0000                	unimp
 3da:	2a00                	fld	fs0,16(a2)
 3dc:	7428                	flw	fa0,104(s0)
 3de:	0100                	addi	s0,sp,128
 3e0:	000041d3          	fadd.s	ft3,ft0,ft0,rmm
 3e4:	0000                	unimp
 3e6:	0600                	addi	s0,sp,768
 3e8:	00a9                	addi	ra,ra,10
 3ea:	0000                	unimp
 3ec:	000003f7          	0x3f7
 3f0:	00004807          	0x4807
 3f4:	1f00                	addi	s0,sp,944
 3f6:	2400                	fld	fs0,8(s0)
 3f8:	000000fb          	lp.starti	x1,3f8 <_min_stack-0x1c08>
 3fc:	9a01                	andi	a2,a2,-32
 3fe:	0041                	c.addi	zero,16
 400:	0000                	unimp
 402:	6101                	addi	sp,sp,0
 404:	0004                	addi	s1,sp,0
 406:	2500                	fld	fs0,8(a0)
 408:	0074756f          	jal	a0,47c0e <tohost+0x27c06>
 40c:	9a01                	andi	a2,a2,-32
 40e:	0335                	addi	t1,t1,13
 410:	0000                	unimp
 412:	7026                	flw	ft0,104(sp)
 414:	0000                	unimp
 416:	0100                	addi	s0,sp,128
 418:	5f9a                	lw	t6,164(sp)
 41a:	0001                	nop
 41c:	2600                	fld	fs0,8(a2)
 41e:	00000027          	0x27
 422:	9a01                	andi	a2,a2,-32
 424:	0041                	c.addi	zero,16
 426:	0000                	unimp
 428:	7025                	0x7025
 42a:	6461                	lui	s0,0x18
 42c:	0100                	addi	s0,sp,128
 42e:	419a                	lw	gp,132(sp)
 430:	0000                	unimp
 432:	2800                	fld	fs0,16(s0)
 434:	6370                	flw	fa2,68(a4)
 436:	0100                	addi	s0,sp,128
 438:	419c                	lw	a5,0(a1)
 43a:	0000                	unimp
 43c:	2700                	fld	fs0,8(a4)
 43e:	0012                	0x12
 440:	0000                	unimp
 442:	9c01                	0x9c01
 444:	0041                	c.addi	zero,16
 446:	0000                	unimp
 448:	282a                	fld	fa6,136(sp)
 44a:	656c                	flw	fa1,76(a0)
 44c:	006e                	0x6e
 44e:	9f01                	0x9f01
 450:	0041                	c.addi	zero,16
 452:	0000                	unimp
 454:	7028                	flw	fa0,96(s0)
 456:	7274                	flw	fa3,100(a2)
 458:	0100                	addi	s0,sp,128
 45a:	5fa0                	lw	s0,120(a5)
 45c:	0001                	nop
 45e:	0000                	unimp
 460:	2b00                	fld	fs0,16(a4)
 462:	01e4                	addi	s1,sp,204
 464:	0000                	unimp
 466:	8f01                	sub	a4,a4,s0
 468:	8201                	srli	a2,a2,0x0
 46a:	0004                	addi	s1,sp,0
 46c:	2500                	fld	fs0,8(a0)
 46e:	00727473          	csrrci	s0,0x7,4
 472:	8f01                	sub	a4,a4,s0
 474:	0335                	addi	t1,t1,13
 476:	0000                	unimp
 478:	6325                	lui	t1,0x9
 47a:	0100                	addi	s0,sp,128
 47c:	0000418f          	0x418f
 480:	0000                	unimp
 482:	0a2c                	addi	a1,sp,280
 484:	0000                	unimp
 486:	0100                	addi	s0,sp,128
 488:	4189                	li	gp,2
 48a:	0000                	unimp
 48c:	0100                	addi	s0,sp,128
 48e:	049c                	addi	a5,sp,576
 490:	0000                	unimp
 492:	7325                	lui	t1,0xfffe9
 494:	0100                	addi	s0,sp,128
 496:	4189                	li	gp,2
 498:	0000                	unimp
 49a:	0000                	unimp
 49c:	0324                	addi	s1,sp,392
 49e:	0001                	nop
 4a0:	0100                	addi	s0,sp,128
 4a2:	4884                	lw	s1,16(s1)
 4a4:	0000                	unimp
 4a6:	0100                	addi	s0,sp,128
 4a8:	04b6                	slli	s1,s1,0xd
 4aa:	0000                	unimp
 4ac:	6e25                	lui	t3,0x9
 4ae:	0100                	addi	s0,sp,128
 4b0:	4884                	lw	s1,16(s1)
 4b2:	0000                	unimp
 4b4:	0000                	unimp
 4b6:	6d24                	flw	fs1,88(a0)
 4b8:	0002                	0x2
 4ba:	0100                	addi	s0,sp,128
 4bc:	4872                	lw	a6,28(sp)
 4be:	0000                	unimp
 4c0:	0100                	addi	s0,sp,128
 4c2:	04e2                	slli	s1,s1,0x18
 4c4:	0000                	unimp
 4c6:	6e25                	lui	t3,0x9
 4c8:	0100                	addi	s0,sp,128
 4ca:	4872                	lw	a6,28(sp)
 4cc:	0000                	unimp
 4ce:	2800                	fld	fs0,16(s0)
 4d0:	0071                	c.addi	zero,28
 4d2:	7301                	lui	t1,0xfffe0
 4d4:	0048                	addi	a0,sp,4
 4d6:	0000                	unimp
 4d8:	7228                	flw	fa0,96(a2)
 4da:	0100                	addi	s0,sp,128
 4dc:	00004873          	0x4873
 4e0:	0000                	unimp
 4e2:	242d                	jal	70c <_min_stack-0x18f4>
 4e4:	0001                	nop
 4e6:	0100                	addi	s0,sp,128
 4e8:	2454                	fld	fa3,136(s0)
 4ea:	0ee00003          	lb	zero,238(zero) # ee <_min_stack-0x1f12>
 4ee:	0000                	unimp
 4f0:	0100                	addi	s0,sp,128
 4f2:	2e9c                	fld	fa5,24(a3)
 4f4:	0274                	addi	a3,sp,268
 4f6:	0000                	unimp
 4f8:	4c01                	li	s8,0
 4fa:	0901                	addi	s2,s2,0
 4fc:	0005                	c.addi	zero,1
 4fe:	2500                	fld	fs0,8(a0)
 500:	4c010063          	beqz	sp,9c0 <_min_stack-0x1640>
 504:	00b0                	addi	a2,sp,72
 506:	0000                	unimp
 508:	2f00                	fld	fs0,24(a4)
 50a:	0000005b          	p.mac	zero,zero,zero,zero
 50e:	4601                	li	a2,0
 510:	00a9                	addi	ra,ra,10
 512:	0000                	unimp
 514:	0302                	slli	t1,t1,0x0
 516:	e000                	fsw	fs0,0(s0)
 518:	0012                	0x12
 51a:	0000                	unimp
 51c:	9c01                	0x9c01
 51e:	a430                	fsd	fa2,72(s0)
 520:	0002                	0x2
 522:	0100                	addi	s0,sp,128
 524:	ca34                	sw	a3,80(a2)
 526:	0002                	0x2
 528:	38e0                	fld	fs0,240(s1)
 52a:	0000                	unimp
 52c:	0100                	addi	s0,sp,128
 52e:	5f9c                	lw	a5,56(a5)
 530:	0005                	c.addi	zero,1
 532:	3100                	fld	fs0,32(a0)
 534:	00727473          	csrrci	s0,0x7,4
 538:	3401                	jal	ffffff38 <pulp__FC+0xffffff39>
 53a:	015f 0000 02af      	0x2af0000015f
 540:	0000                	unimp
 542:	6c31                	lui	s8,0xc
 544:	6e65                	lui	t3,0x19
 546:	0100                	addi	s0,sp,128
 548:	4834                	lw	a3,80(s0)
 54a:	0000                	unimp
 54c:	e300                	fsw	fs0,0(a4)
 54e:	0002                	0x2
 550:	3200                	fld	fs0,32(a2)
 552:	0069                	c.addi	zero,26
 554:	3501                	jal	354 <_min_stack-0x1cac>
 556:	0048                	addi	a0,sp,4
 558:	0000                	unimp
 55a:	0301                	addi	t1,t1,0
 55c:	0000                	unimp
 55e:	3000                	fld	fs0,32(s0)
 560:	001a                	0x1a
 562:	0000                	unimp
 564:	2a01                	jal	674 <_min_stack-0x198c>
 566:	029c                	addi	a5,sp,320
 568:	e000                	fsw	fs0,0(s0)
 56a:	002e                	0x2e
 56c:	0000                	unimp
 56e:	9c01                	0x9c01
 570:	0591                	addi	a1,a1,4
 572:	0000                	unimp
 574:	00008633          	add	a2,ra,zero
 578:	0100                	addi	s0,sp,128
 57a:	412a                	lw	sp,136(sp)
 57c:	0000                	unimp
 57e:	0100                	addi	s0,sp,128
 580:	345a                	fld	fs0,432(sp)
 582:	0289                	addi	t0,t0,2
 584:	0000                	unimp
 586:	2a01                	jal	696 <_min_stack-0x196a>
 588:	0079                	c.addi	zero,30
 58a:	0000                	unimp
 58c:	00000363          	beqz	zero,592 <_min_stack-0x1a6e>
 590:	3000                	fld	fs0,32(s0)
 592:	002d                	c.addi	zero,11
 594:	0000                	unimp
 596:	1b01                	addi	s6,s6,-32
 598:	04dc                	addi	a5,sp,580
 59a:	e000                	fsw	fs0,0(s0)
 59c:	000a                	0xa
 59e:	0000                	unimp
 5a0:	9c01                	0x9c01
 5a2:	05ba                	slli	a1,a1,0xe
 5a4:	0000                	unimp
 5a6:	e635                	bnez	a2,612 <_min_stack-0x19ee>
 5a8:	0004                	addi	s1,sp,0
 5aa:	65e0                	flw	fs0,76(a1)
 5ac:	0001                	nop
 5ae:	2300                	fld	fs0,0(a4)
 5b0:	5a01                	li	s4,-32
 5b2:	0305                	addi	t1,t1,1
 5b4:	0748                	addi	a0,sp,900
 5b6:	e000                	fsw	fs0,0(s0)
 5b8:	0000                	unimp
 5ba:	6136                	flw	ft2,76(sp)
 5bc:	0004                	addi	s1,sp,0
 5be:	8400                	0x8400
 5c0:	0000                	unimp
 5c2:	10e0                	addi	s0,sp,108
 5c4:	0000                	unimp
 5c6:	0100                	addi	s0,sp,128
 5c8:	0b9c                	addi	a5,sp,464
 5ca:	0006                	0x6
 5cc:	3700                	fld	fs0,40(a4)
 5ce:	0478                	addi	a4,sp,524
 5d0:	0000                	unimp
 5d2:	5a01                	li	s4,-32
 5d4:	00046d37          	lui	s10,0x46
 5d8:	0600                	addi	s0,sp,768
 5da:	6dfa                	flw	fs11,156(sp)
 5dc:	0004                	addi	s1,sp,0
 5de:	9f00                	0x9f00
 5e0:	8212                	mv	tp,tp
 5e2:	0004                	addi	s1,sp,0
 5e4:	8400                	0x8400
 5e6:	0000                	unimp
 5e8:	0ee0                	addi	s0,sp,860
 5ea:	0000                	unimp
 5ec:	0100                	addi	s0,sp,128
 5ee:	04921197          	auipc	gp,0x4921
 5f2:	0000                	unimp
 5f4:	f312                	fsw	ft4,164(sp)
 5f6:	0004                	addi	s1,sp,0
 5f8:	8400                	0x8400
 5fa:	0000                	unimp
 5fc:	0ee0                	addi	s0,sp,860
 5fe:	0000                	unimp
 600:	0100                	addi	s0,sp,128
 602:	04ff118b          	p.lh	gp,79(t5!) # a04f <_stack_len+0x204f>
 606:	0000                	unimp
 608:	0000                	unimp
 60a:	3600                	fld	fs0,40(a2)
 60c:	000003f7          	0x3f7
 610:	0094                	addi	a3,sp,64
 612:	e000                	fsw	fs0,0(s0)
 614:	00d2                	slli	ra,ra,0x14
 616:	0000                	unimp
 618:	9c01                	0x9c01
 61a:	0756                	slli	a4,a4,0x15
 61c:	0000                	unimp
 61e:	120e                	slli	tp,tp,0x23
 620:	0004                	addi	s1,sp,0
 622:	8400                	0x8400
 624:	0e000003          	lb	zero,224(zero) # e0 <_min_stack-0x1f20>
 628:	041d                	addi	s0,s0,7
 62a:	0000                	unimp
 62c:	040d                	addi	s0,s0,3
 62e:	0000                	unimp
 630:	280e                	fld	fa6,192(sp)
 632:	0004                	addi	s1,sp,0
 634:	cc00                	sw	s0,24(s0)
 636:	0004                	addi	s1,sp,0
 638:	1a00                	addi	s0,sp,304
 63a:	00000433          	add	s0,zero,zero
 63e:	00000543          	fmadd.s	fa0,ft0,ft0,ft0,rne
 642:	3d1a                	fld	fs10,416(sp)
 644:	0004                	addi	s1,sp,0
 646:	b300                	fsd	fs0,32(a4)
 648:	0005                	c.addi	zero,1
 64a:	3800                	fld	fs0,48(s0)
 64c:	00000407          	0x407
 650:	1d00                	addi	s0,sp,688
 652:	0448                	addi	a0,sp,516
 654:	0000                	unimp
 656:	0000                	unimp
 658:	0000                	unimp
 65a:	0671                	addi	a2,a2,28
 65c:	0000                	unimp
 65e:	491a                	lw	s2,132(sp)
 660:	0004                	addi	s1,sp,0
 662:	1200                	addi	s0,sp,288
 664:	0006                	0x6
 666:	1a00                	addi	s0,sp,304
 668:	0454                	addi	a3,sp,516
 66a:	0000                	unimp
 66c:	0648                	addi	a0,sp,772
 66e:	0000                	unimp
 670:	3900                	fld	fs0,48(a0)
 672:	0461                	addi	s0,s0,24
 674:	0000                	unimp
 676:	00ce                	slli	ra,ra,0x13
 678:	e000                	fsw	fs0,0(s0)
 67a:	0038                	addi	a4,sp,8
 67c:	0000                	unimp
 67e:	ad01                	j	c8e <_min_stack-0x1372>
 680:	06df 0000 780e      	0x780e000006df
 686:	0004                	addi	s1,sp,0
 688:	9f00                	0x9f00
 68a:	0006                	0x6
 68c:	0e00                	addi	s0,sp,784
 68e:	046d                	addi	s0,s0,27
 690:	0000                	unimp
 692:	000006d7          	pv.add.h	a3,zero,zero
 696:	d022                	sw	s0,32(sp)
 698:	0000                	unimp
 69a:	bae0                	fsd	fs0,240(a3)
 69c:	0005                	c.addi	zero,1
 69e:	ab00                	fsd	fs0,16(a4)
 6a0:	0006                	0x6
 6a2:	2100                	fld	fs0,0(a0)
 6a4:	046d                	addi	s0,s0,27
 6a6:	0000                	unimp
 6a8:	3001                	jal	fffffea8 <pulp__FC+0xfffffea9>
 6aa:	2200                	fld	fs0,0(a2)
 6ac:	0128                	addi	a0,sp,136
 6ae:	e000                	fsw	fs0,0(s0)
 6b0:	05ba                	slli	a1,a1,0xe
 6b2:	0000                	unimp
 6b4:	06c0                	addi	s0,sp,836
 6b6:	0000                	unimp
 6b8:	6d21                	lui	s10,0x8
 6ba:	0004                	addi	s1,sp,0
 6bc:	0100                	addi	s0,sp,128
 6be:	0030                	addi	a2,sp,8
 6c0:	3e22                	fld	ft8,40(sp)
 6c2:	0001                	nop
 6c4:	bae0                	fsd	fs0,240(a3)
 6c6:	0005                	c.addi	zero,1
 6c8:	d500                	sw	s0,40(a0)
 6ca:	0006                	0x6
 6cc:	2100                	fld	fs0,0(a0)
 6ce:	046d                	addi	s0,s0,27
 6d0:	0000                	unimp
 6d2:	3001                	jal	fffffed2 <pulp__FC+0xfffffed3>
 6d4:	1e00                	addi	s0,sp,816
 6d6:	014c                	addi	a1,sp,132
 6d8:	e000                	fsw	fs0,0(s0)
 6da:	05ba                	slli	a1,a1,0xe
 6dc:	0000                	unimp
 6de:	3a00                	fld	fs0,48(a2)
 6e0:	0461                	addi	s0,s0,24
 6e2:	0000                	unimp
 6e4:	00e0                	addi	s0,sp,76
 6e6:	e000                	fsw	fs0,0(s0)
 6e8:	0004                	addi	s1,sp,0
 6ea:	0000                	unimp
 6ec:	b101                	j	2ec <_min_stack-0x1d14>
 6ee:	071c                	addi	a5,sp,896
 6f0:	0000                	unimp
 6f2:	780e                	flw	fa6,224(sp)
 6f4:	0004                	addi	s1,sp,0
 6f6:	0300                	addi	s0,sp,384
 6f8:	0e000007          	0xe000007
 6fc:	046d                	addi	s0,s0,27
 6fe:	0000                	unimp
 700:	0716                	slli	a4,a4,0x5
 702:	0000                	unimp
 704:	e420                	fsw	fs0,72(s0)
 706:	0000                	unimp
 708:	bae0                	fsd	fs0,240(a3)
 70a:	0005                	c.addi	zero,1
 70c:	2300                	fld	fs0,0(a4)
 70e:	5a01                	li	s4,-32
 710:	8302                	jr	t1
 712:	2100                	fld	fs0,0(a0)
 714:	046d                	addi	s0,s0,27
 716:	0000                	unimp
 718:	3001                	jal	ffffff18 <pulp__FC+0xffffff19>
 71a:	0000                	unimp
 71c:	6112                	flw	ft2,4(sp)
 71e:	0004                	addi	s1,sp,0
 720:	1600                	addi	s0,sp,800
 722:	0001                	nop
 724:	04e0                	addi	s0,sp,588
 726:	0000                	unimp
 728:	0100                	addi	s0,sp,128
 72a:	0ea8                	addi	a0,sp,856
 72c:	0478                	addi	a4,sp,524
 72e:	0000                	unimp
 730:	072a                	slli	a4,a4,0xa
 732:	0000                	unimp
 734:	6d0e                	flw	fs10,192(sp)
 736:	0004                	addi	s1,sp,0
 738:	3d00                	fld	fs0,56(a0)
 73a:	20000007          	0x20000007
 73e:	011a                	slli	sp,sp,0x6
 740:	e000                	fsw	fs0,0(s0)
 742:	05ba                	slli	a1,a1,0xe
 744:	0000                	unimp
 746:	025a0123          	sb	t0,34(s4)
 74a:	6d210083          	lb	ra,1746(sp)
 74e:	0004                	addi	s1,sp,0
 750:	0100                	addi	s0,sp,128
 752:	0030                	addi	a2,sp,8
 754:	0000                	unimp
 756:	5136                	lw	sp,108(sp)
 758:	66000003          	lb	zero,1632(zero) # 660 <_min_stack-0x19a0>
 75c:	0001                	nop
 75e:	36e0                	fld	fs0,232(a3)
 760:	0001                	nop
 762:	0100                	addi	s0,sp,128
 764:	9b9c                	0x9b9c
 766:	0008                	addi	a0,sp,0
 768:	0e00                	addi	s0,sp,784
 76a:	036c                	addi	a1,sp,396
 76c:	0000                	unimp
 76e:	0751                	addi	a4,a4,20
 770:	0000                	unimp
 772:	750e                	flw	fa0,224(sp)
 774:	d3000003          	lb	zero,-720(zero) # fffffd30 <pulp__FC+0xfffffd31>
 778:	0e000007          	0xe000007
 77c:	037e                	slli	t1,t1,0x1f
 77e:	0000                	unimp
 780:	084a                	slli	a6,a6,0x12
 782:	0000                	unimp
 784:	880e                	mv	a6,gp
 786:	cc000003          	lb	zero,-832(zero) # fffffcc0 <pulp__FC+0xfffffcc1>
 78a:	0008                	addi	a0,sp,0
 78c:	0e00                	addi	s0,sp,784
 78e:	00000393          	li	t2,0
 792:	091c                	addi	a5,sp,144
 794:	0000                	unimp
 796:	9e0e                	add	t3,t3,gp
 798:	7a000003          	lb	zero,1952(zero) # 7a0 <_min_stack-0x1860>
 79c:	0009                	c.addi	zero,2
 79e:	1b00                	addi	s0,sp,432
 7a0:	03a9                	addi	t2,t2,10
 7a2:	0000                	unimp
 7a4:	9102                	jalr	sp
 7a6:	1a50                	addi	a2,sp,308
 7a8:	03b4                	addi	a3,sp,456
 7aa:	0000                	unimp
 7ac:	09f1                	addi	s3,s3,28
 7ae:	0000                	unimp
 7b0:	bd1a                	fsd	ft6,184(sp)
 7b2:	71000003          	lb	zero,1808(zero) # 710 <_min_stack-0x18f0>
 7b6:	000a                	0xa
 7b8:	1a00                	addi	s0,sp,304
 7ba:	03c8                	addi	a0,sp,452
 7bc:	0000                	unimp
 7be:	0aa9                	addi	s5,s5,10
 7c0:	0000                	unimp
 7c2:	d21a                	sw	t1,36(sp)
 7c4:	ec000003          	lb	zero,-320(zero) # fffffec0 <pulp__FC+0xfffffec1>
 7c8:	000a                	0xa
 7ca:	3800                	fld	fs0,48(s0)
 7cc:	0361                	addi	t1,t1,24
 7ce:	0000                	unimp
 7d0:	3b00                	fld	fs0,48(a4)
 7d2:	000003db          	p.mac	t2,zero,zero,zero
 7d6:	018e                	slli	gp,gp,0x3
 7d8:	e000                	fsw	fs0,0(s0)
 7da:	001e                	0x1e
 7dc:	0000                	unimp
 7de:	07ec                	addi	a1,sp,972
 7e0:	0000                	unimp
 7e2:	dc1a                	sw	t1,56(sp)
 7e4:	93000003          	lb	zero,-1744(zero) # fffff930 <pulp__FC+0xfffff931>
 7e8:	0000000b          	p.lb	zero,0(zero!) # 0 <_min_stack-0x2000>
 7ec:	9c39                	0x9c39
 7ee:	0004                	addi	s1,sp,0
 7f0:	ce00                	sw	s0,24(a2)
 7f2:	0001                	nop
 7f4:	60e0                	flw	fs0,68(s1)
 7f6:	0000                	unimp
 7f8:	0100                	addi	s0,sp,128
 7fa:	09de                	slli	s3,s3,0x17
 7fc:	0008                	addi	a0,sp,0
 7fe:	0e00                	addi	s0,sp,784
 800:	04ac                	addi	a1,sp,584
 802:	0000                	unimp
 804:	00000bb3          	add	s7,zero,zero
 808:	3900                	fld	fs0,48(a0)
 80a:	04b6                	slli	s1,s1,0xd
 80c:	0000                	unimp
 80e:	01ea                	slli	gp,gp,0x1a
 810:	e000                	fsw	fs0,0(s0)
 812:	0090                	addi	a2,sp,64
 814:	0000                	unimp
 816:	df01                	beqz	a4,72e <_min_stack-0x18d2>
 818:	0836                	slli	a6,a6,0xd
 81a:	0000                	unimp
 81c:	c611                	beqz	a2,828 <_min_stack-0x17d8>
 81e:	0004                	addi	s1,sp,0
 820:	1900                	addi	s0,sp,176
 822:	0090                	addi	a2,sp,64
 824:	0000                	unimp
 826:	cf1a                	sw	t1,156(sp)
 828:	0004                	addi	s1,sp,0
 82a:	c600                	sw	s0,8(a2)
 82c:	3c00000b          	p.lb	zero,960(zero!) # 3c0 <_min_stack-0x1c40>
 830:	04d8                	addi	a4,sp,580
 832:	0000                	unimp
 834:	0000                	unimp
 836:	613a                	flw	ft2,140(sp)
 838:	0004                	addi	s1,sp,0
 83a:	4400                	lw	s0,8(s0)
 83c:	0002                	0x2
 83e:	0ae0                	addi	s0,sp,348
 840:	0000                	unimp
 842:	0100                	addi	s0,sp,128
 844:	73e6                	flw	ft7,120(sp)
 846:	0008                	addi	a0,sp,0
 848:	0e00                	addi	s0,sp,784
 84a:	0478                	addi	a4,sp,524
 84c:	0000                	unimp
 84e:	0bd9                	addi	s7,s7,22
 850:	0000                	unimp
 852:	6d0e                	flw	fs10,192(sp)
 854:	0004                	addi	s1,sp,0
 856:	ee00                	fsw	fs0,24(a2)
 858:	2000000b          	p.lb	zero,512(zero!) # 200 <_min_stack-0x1e00>
 85c:	024e                	slli	tp,tp,0x13
 85e:	e000                	fsw	fs0,0(s0)
 860:	05ba                	slli	a1,a1,0xe
 862:	0000                	unimp
 864:	025a0123          	sb	t0,34(s4)
 868:	2d08                	fld	fa0,24(a0)
 86a:	6d21                	lui	s10,0x8
 86c:	0004                	addi	s1,sp,0
 86e:	0100                	addi	s0,sp,128
 870:	0030                	addi	a2,sp,8
 872:	1e00                	addi	s0,sp,816
 874:	01b8                	addi	a4,sp,200
 876:	e000                	fsw	fs0,0(s0)
 878:	0000060b          	p.lb	a2,0(zero!) # 0 <_min_stack-0x2000>
 87c:	7820                	flw	fs0,112(s0)
 87e:	0002                	0x2
 880:	0be0                	addi	s0,sp,476
 882:	0006                	0x6
 884:	2300                	fld	fs0,0(a4)
 886:	5a01                	li	s4,-32
 888:	9102                	jalr	sp
 88a:	2350                	fld	fa2,128(a4)
 88c:	5b01                	li	s6,-32
 88e:	5d01f303          	0x5d01f303
 892:	035c0123          	sb	s5,34(s8) # c022 <_stack_len+0x4022>
 896:	005e01f3          	0x5e01f3
 89a:	3600                	fld	fs0,40(a2)
 89c:	000004f3          	0x4f3
 8a0:	0314                	addi	a3,sp,384
 8a2:	e000                	fsw	fs0,0(s0)
 8a4:	0010                	addi	a2,sp,0
 8a6:	0000                	unimp
 8a8:	9c01                	0x9c01
 8aa:	08b6                	slli	a7,a7,0xd
 8ac:	0000                	unimp
 8ae:	0004ff37          	lui	t5,0x4f
 8b2:	0100                	addi	s0,sp,128
 8b4:	005a                	0x5a
 8b6:	823d                	srli	a2,a2,0xf
 8b8:	0004                	addi	s1,sp,0
 8ba:	3200                	fld	fs0,32(a2)
 8bc:	14e00003          	lb	zero,334(zero) # 14e <_min_stack-0x1eb2>
 8c0:	0000                	unimp
 8c2:	0100                	addi	s0,sp,128
 8c4:	379c                	fld	fa5,40(a5)
 8c6:	0492                	slli	s1,s1,0x4
 8c8:	0000                	unimp
 8ca:	5a01                	li	s4,-32
 8cc:	f312                	fsw	ft4,164(sp)
 8ce:	0004                	addi	s1,sp,0
 8d0:	3200                	fld	fs0,32(a2)
 8d2:	12e00003          	lb	zero,302(zero) # 12e <_min_stack-0x1ed2>
 8d6:	0000                	unimp
 8d8:	0100                	addi	s0,sp,128
 8da:	04ff0e8b          	p.lb	t4,79(t5!) # 4f04f <tohost+0x2f047>
 8de:	0000                	unimp
 8e0:	0c02                	slli	s8,s8,0x0
 8e2:	0000                	unimp
 8e4:	0000                	unimp
 8e6:	4700                	lw	s0,8(a4)
 8e8:	0004                	addi	s1,sp,0
 8ea:	0400                	addi	s0,sp,512
 8ec:	4100                	lw	s0,0(a0)
 8ee:	04000003          	lb	zero,64(zero) # 40 <_min_stack-0x1fc0>
 8f2:	ef01                	bnez	a4,90a <_min_stack-0x16f6>
 8f4:	0001                	nop
 8f6:	0c00                	addi	s0,sp,528
 8f8:	0439                	addi	s0,s0,14
 8fa:	0000                	unimp
 8fc:	014d                	addi	sp,sp,19
 8fe:	0000                	unimp
 900:	0170                	addi	a2,sp,140
 902:	0000                	unimp
 904:	0000                	unimp
 906:	0000                	unimp
 908:	0669                	addi	a2,a2,26
 90a:	0000                	unimp
 90c:	0402                	slli	s0,s0,0x0
 90e:	6905                	lui	s2,0x1
 910:	746e                	flw	fs0,248(sp)
 912:	0300                	addi	s0,sp,384
 914:	0704                	addi	s1,sp,896
 916:	0140                	addi	s0,sp,132
 918:	0000                	unimp
 91a:	40050803          	lb	a6,1024(a0)
 91e:	0000                	unimp
 920:	0300                	addi	s0,sp,384
 922:	0410                	addi	a2,sp,512
 924:	010a                	slli	sp,sp,0x2
 926:	0000                	unimp
 928:	18060103          	lb	sp,384(a2)
 92c:	0001                	nop
 92e:	0300                	addi	s0,sp,384
 930:	0502                	slli	a0,a0,0x0
 932:	0000                	unimp
 934:	0000                	unimp
 936:	45050403          	lb	s0,1104(a0)
 93a:	0000                	unimp
 93c:	0300                	addi	s0,sp,384
 93e:	0801                	addi	a6,a6,0
 940:	0116                	slli	sp,sp,0x5
 942:	0000                	unimp
 944:	c7070203          	lb	tp,-912(a4)
 948:	0001                	nop
 94a:	0400                	addi	s0,sp,512
 94c:	0411                	addi	s0,s0,4
 94e:	0000                	unimp
 950:	3402                	fld	fs0,32(sp)
 952:	0074                	addi	a3,sp,12
 954:	0000                	unimp
 956:	6405                	lui	s0,0x1
 958:	0000                	unimp
 95a:	0300                	addi	s0,sp,384
 95c:	0704                	addi	s1,sp,896
 95e:	0000013b          	0x13b
 962:	0504                	addi	s1,sp,640
 964:	02000003          	lb	zero,32(zero) # 20 <_min_stack-0x1fe0>
 968:	00008637          	lui	a2,0x8
 96c:	0300                	addi	s0,sp,384
 96e:	0708                	addi	a0,sp,896
 970:	0136                	slli	sp,sp,0xd
 972:	0000                	unimp
 974:	f804                	fsw	fs1,48(s0)
 976:	0002                	0x2
 978:	0100                	addi	s0,sp,128
 97a:	7b10                	flw	fa2,48(a4)
 97c:	0000                	unimp
 97e:	0600                	addi	s0,sp,768
 980:	032d                	addi	t1,t1,11
 982:	0000                	unimp
 984:	0110                	addi	a2,sp,128
 986:	d58c                	sw	a1,40(a1)
 988:	0000                	unimp
 98a:	0700                	addi	s0,sp,896
 98c:	0000006b          	0x6b
 990:	8d01                	sub	a0,a0,s0
 992:	00d5                	addi	ra,ra,21
 994:	0000                	unimp
 996:	0700                	addi	s0,sp,896
 998:	03ca                	slli	t2,t2,0x12
 99a:	0000                	unimp
 99c:	8e01                	sub	a2,a2,s0
 99e:	00d5                	addi	ra,ra,21
 9a0:	0000                	unimp
 9a2:	0804                	addi	s1,sp,16
 9a4:	7470                	flw	fa2,108(s0)
 9a6:	0072                	0x72
 9a8:	8f01                	sub	a4,a4,s0
 9aa:	00d5                	addi	ra,ra,21
 9ac:	0000                	unimp
 9ae:	0708                	addi	a0,sp,896
 9b0:	03b6                	slli	t2,t2,0xd
 9b2:	0000                	unimp
 9b4:	9001                	srli	s0,s0,0x20
 9b6:	00d5                	addi	ra,ra,21
 9b8:	0000                	unimp
 9ba:	000c                	addi	a1,sp,0
 9bc:	0409                	addi	s0,s0,2
 9be:	0064                	addi	s1,sp,12
 9c0:	0000                	unimp
 9c2:	bb04                	fsd	fs1,48(a4)
 9c4:	01000003          	lb	zero,16(zero) # 10 <_min_stack-0x1ff0>
 9c8:	9891                	andi	s1,s1,-28
 9ca:	0000                	unimp
 9cc:	0a00                	addi	s0,sp,272
 9ce:	032d                	addi	t1,t1,11
 9d0:	0000                	unimp
 9d2:	9301                	srli	a4,a4,0x20
 9d4:	000000db          	p.mac	ra,zero,zero,zero
 9d8:	0305                	addi	t1,t1,1
 9da:	0794                	addi	a3,sp,960
 9dc:	e000                	fsw	fs0,0(s0)
 9de:	0003840b          	p.lb	s0,0(t2!)
 9e2:	0100                	addi	s0,sp,128
 9e4:	25fd                	jal	10d2 <_min_stack-0xf2e>
 9e6:	0000                	unimp
 9e8:	dc00                	sw	s0,56(s0)
 9ea:	0006                	0x6
 9ec:	62e0                	flw	fs0,68(a3)
 9ee:	0000                	unimp
 9f0:	0100                	addi	s0,sp,128
 9f2:	c99c                	sw	a5,16(a1)
 9f4:	0001                	nop
 9f6:	0c00                	addi	s0,sp,528
 9f8:	000003eb          	0x3eb
 9fc:	fd01                	bnez	a0,914 <_min_stack-0x16ec>
 9fe:	0025                	c.addi	zero,9
 a00:	0000                	unimp
 a02:	0c15                	addi	s8,s8,5
 a04:	0000                	unimp
 a06:	0c0c                	addi	a1,sp,528
 a08:	0004                	addi	s1,sp,0
 a0a:	0100                	addi	s0,sp,128
 a0c:	c9fd                	beqz	a1,b02 <_min_stack-0x14fe>
 a0e:	0001                	nop
 a10:	3600                	fld	fs0,40(a2)
 a12:	000c                	addi	a1,sp,0
 a14:	0d00                	addi	s0,sp,656
 a16:	00000323          	sb	zero,6(zero) # 6 <_min_stack-0x1ffa>
 a1a:	0101                	addi	sp,sp,0
 a1c:	2501                	jal	101c <_min_stack-0xfe4>
 a1e:	0000                	unimp
 a20:	0000                	unimp
 a22:	01c2                	slli	gp,gp,0x10
 a24:	0d00                	addi	s0,sp,656
 a26:	03e1                	addi	t2,t2,24
 a28:	0000                	unimp
 a2a:	0201                	addi	tp,tp,0
 a2c:	2501                	jal	102c <_min_stack-0xfd4>
 a2e:	0000                	unimp
 a30:	8000                	0x8000
 a32:	faf0                	fsw	fa2,116(a3)
 a34:	0e02                	slli	t3,t3,0x0
 a36:	6176                	flw	ft2,92(sp)
 a38:	006c                	addi	a1,sp,12
 a3a:	1001                	c.addi	zero,-32
 a3c:	6401                	lui	s0,0x0
 a3e:	0000                	unimp
 a40:	5700                	lw	s0,40(a4)
 a42:	000c                	addi	a1,sp,0
 a44:	0f00                	addi	s0,sp,912
 a46:	02b5                	addi	t0,t0,13
 a48:	0000                	unimp
 a4a:	1101                	addi	sp,sp,-32
 a4c:	dc01                	beqz	s0,964 <_min_stack-0x169c>
 a4e:	0001                	nop
 a50:	9000                	0x9000
 a52:	8082                	ret
 a54:	7cc0                	flw	fs0,60(s1)
 a56:	0003570f          	0x3570f
 a5a:	0100                	addi	s0,sp,128
 a5c:	0112                	slli	sp,sp,0x4
 a5e:	01dc                	addi	a5,sp,196
 a60:	0000                	unimp
 a62:	c088                	sw	a0,0(s1)
 a64:	c080                	sw	s0,0(s1)
 a66:	0e7c                	addi	a5,sp,796
 a68:	7470                	flw	fa2,108(s0)
 a6a:	0072                	0x72
 a6c:	1301                	addi	t1,t1,-32
 a6e:	d501                	beqz	a0,976 <_min_stack-0x168a>
 a70:	0000                	unimp
 a72:	9700                	0x9700
 a74:	000c                	addi	a1,sp,0
 a76:	1000                	addi	s0,sp,32
 a78:	06e6                	slli	a3,a3,0x19
 a7a:	e000                	fsw	fs0,0(s0)
 a7c:	0429                	addi	s0,s0,10
 a7e:	0000                	unimp
 a80:	01a8                	addi	a0,sp,200
 a82:	0000                	unimp
 a84:	0111                	addi	sp,sp,4
 a86:	015a                	slli	sp,sp,0x16
 a88:	1130                	addi	a2,sp,168
 a8a:	5b01                	li	s6,-32
 a8c:	4b01                	li	s6,0
 a8e:	1000                	addi	s0,sp,32
 a90:	06f0                	addi	a2,sp,844
 a92:	e000                	fsw	fs0,0(s0)
 a94:	0434                	addi	a3,sp,520
 a96:	0000                	unimp
 a98:	000001bf 055a0111 	0x55a0111000001bf
 aa0:	00075803          	lhu	a6,0(a4)
 aa4:	00e0                	addi	s0,sp,76
 aa6:	f212                	fsw	ft4,36(sp)
 aa8:	0006                	0x6
 aaa:	3fe0                	fld	fs0,248(a5)
 aac:	0004                	addi	s1,sp,0
 aae:	0000                	unimp
 ab0:	0409                	addi	s0,s0,2
 ab2:	000001cf          	fnmadd.s	ft3,ft0,ft0,ft0,rne
 ab6:	0409                	addi	s0,s0,2
 ab8:	01d5                	addi	gp,gp,21
 aba:	0000                	unimp
 abc:	1f080103          	lb	sp,496(a6)
 ac0:	0001                	nop
 ac2:	0900                	addi	s0,sp,144
 ac4:	6f04                	flw	fs1,24(a4)
 ac6:	0000                	unimp
 ac8:	1300                	addi	s0,sp,416
 aca:	039c                	addi	a5,sp,448
 acc:	0000                	unimp
 ace:	d701                	beqz	a4,9d6 <_min_stack-0x162a>
 ad0:	0520                	addi	s0,sp,648
 ad2:	e000                	fsw	fs0,0(s0)
 ad4:	0140                	addi	s0,sp,132
 ad6:	0000                	unimp
 ad8:	9c01                	0x9c01
 ada:	0339                	addi	t1,t1,14
 adc:	0000                	unimp
 ade:	1a14                	addi	a3,sp,304
 ae0:	0004                	addi	s1,sp,0
 ae2:	0100                	addi	s0,sp,128
 ae4:	dcda                	sw	s6,120(sp)
 ae6:	0001                	nop
 ae8:	8400                	0x8400
 aea:	8080                	0x8080
 aec:	7cc1                	lui	s9,0xffff0
 aee:	4f15                	li	t5,5
 af0:	01000003          	lb	zero,16(zero) # 10 <_min_stack-0x1ff0>
 af4:	7bdd                	lui	s7,0xffff7
 af6:	0000                	unimp
 af8:	ba00                	fsd	fs0,48(a2)
 afa:	000c                	addi	a1,sp,0
 afc:	1500                	addi	s0,sp,672
 afe:	0406                	slli	s0,s0,0x1
 b00:	0000                	unimp
 b02:	de01                	beqz	a2,a1a <_min_stack-0x15e6>
 b04:	0339                	addi	t1,t1,14
 b06:	0000                	unimp
 b08:	0d12                	slli	s10,s10,0x4
 b0a:	0000                	unimp
 b0c:	d916                	sw	t0,176(sp)
 b0e:	24000003          	lb	zero,576(zero) # 240 <_min_stack-0x1dc0>
 b12:	0005                	c.addi	zero,1
 b14:	28e0                	fld	fs0,208(s1)
 b16:	0001                	nop
 b18:	0100                	addi	s0,sp,128
 b1a:	041d16e3          	bne	s10,ra,1366 <_min_stack-0xc9a>
 b1e:	0000                	unimp
 b20:	052e                	slli	a0,a0,0xb
 b22:	e000                	fsw	fs0,0(s0)
 b24:	0140                	addi	s0,sp,132
 b26:	0000                	unimp
 b28:	e401                	bnez	s0,b30 <_min_stack-0x14d0>
 b2a:	1116                	slli	sp,sp,0x25
 b2c:	0004                	addi	s1,sp,0
 b2e:	4e00                	lw	s0,24(a2)
 b30:	0005                	c.addi	zero,1
 b32:	58e0                	lw	s0,116(s1)
 b34:	0001                	nop
 b36:	0100                	addi	s0,sp,128
 b38:	17ea                	slli	a5,a5,0x3a
 b3a:	03e1                	addi	t2,t2,24
 b3c:	0000                	unimp
 b3e:	0564                	addi	s1,sp,652
 b40:	e000                	fsw	fs0,0(s0)
 b42:	000a                	0xa
 b44:	0000                	unimp
 b46:	f101                	bnez	a0,a46 <_min_stack-0x15ba>
 b48:	0000026b          	0x26b
 b4c:	ed18                	fsw	fa4,24(a0)
 b4e:	00000003          	lb	zero,0(zero) # 0 <_min_stack-0x2000>
 b52:	8219                	srli	a2,a2,0x6
 b54:	8a000003          	lb	zero,-1888(zero) # fffff8a0 <pulp__FC+0xfffff8a1>
 b58:	0005                	c.addi	zero,1
 b5a:	0ae0                	addi	s0,sp,348
 b5c:	0000                	unimp
 b5e:	0100                	addi	s0,sp,128
 b60:	03f919eb          	0x3f919eb
 b64:	0000                	unimp
 b66:	059e                	slli	a1,a1,0x7
 b68:	e000                	fsw	fs0,0(s0)
 b6a:	0008                	addi	a0,sp,0
 b6c:	0000                	unimp
 b6e:	ee01                	bnez	a2,b86 <_min_stack-0x147a>
 b70:	00039a17          	auipc	s4,0x39
 b74:	a600                	fsd	fs0,8(a2)
 b76:	0005                	c.addi	zero,1
 b78:	20e0                	fld	fs0,192(s1)
 b7a:	0000                	unimp
 b7c:	0100                	addi	s0,sp,128
 b7e:	0002b5ef          	jal	a1,2bb7e <tohost+0xbb76>
 b82:	1800                	addi	s0,sp,48
 b84:	03aa                	slli	t2,t2,0xa
 b86:	0000                	unimp
 b88:	a61a                	fsd	ft6,264(sp)
 b8a:	0005                	c.addi	zero,1
 b8c:	20e0                	fld	fs0,192(s1)
 b8e:	0000                	unimp
 b90:	1b00                	addi	s0,sp,432
 b92:	03b5                	addi	t2,t2,13
 b94:	0000                	unimp
 b96:	0d3e                	slli	s10,s10,0xf
 b98:	0000                	unimp
 b9a:	0000                	unimp
 b9c:	8e19                	sub	a2,a2,a4
 b9e:	c6000003          	lb	zero,-928(zero) # fffffc60 <pulp__FC+0xfffffc61>
 ba2:	0005                	c.addi	zero,1
 ba4:	0ae0                	addi	s0,sp,348
 ba6:	0000                	unimp
 ba8:	0100                	addi	s0,sp,128
 baa:	19e5                	addi	s3,s3,-7
 bac:	0405                	addi	s0,s0,1
 bae:	0000                	unimp
 bb0:	05da                	slli	a1,a1,0x16
 bb2:	e000                	fsw	fs0,0(s0)
 bb4:	0008                	addi	a0,sp,0
 bb6:	0000                	unimp
 bb8:	e801                	bnez	s0,bc8 <_min_stack-0x1438>
 bba:	0003c117          	auipc	sp,0x3c
 bbe:	e200                	fsw	fs0,0(a2)
 bc0:	0005                	c.addi	zero,1
 bc2:	10e0                	addi	s0,sp,108
 bc4:	0000                	unimp
 bc6:	0100                	addi	s0,sp,128
 bc8:	ece9                	bnez	s1,ca2 <_min_stack-0x135e>
 bca:	0002                	0x2
 bcc:	1800                	addi	s0,sp,48
 bce:	03cd                	addi	t2,t2,19
 bd0:	0000                	unimp
 bd2:	1700                	addi	s0,sp,928
 bd4:	0361                	addi	t1,t1,24
 bd6:	0000                	unimp
 bd8:	05f2                	slli	a1,a1,0x1c
 bda:	e000                	fsw	fs0,0(s0)
 bdc:	0030                	addi	a2,sp,8
 bde:	0000                	unimp
 be0:	e601                	bnez	a2,be8 <_min_stack-0x1418>
 be2:	0314                	addi	a3,sp,384
 be4:	0000                	unimp
 be6:	f21a                	fsw	ft6,36(sp)
 be8:	0005                	c.addi	zero,1
 bea:	30e0                	fld	fs0,224(s1)
 bec:	0000                	unimp
 bee:	1c00                	addi	s0,sp,560
 bf0:	036d                	addi	t1,t1,27
 bf2:	0000                	unimp
 bf4:	781c                	flw	fa5,48(s0)
 bf6:	00000003          	lb	zero,0(zero) # 0 <_min_stack-0x2000>
 bfa:	1d00                	addi	s0,sp,688
 bfc:	0340                	addi	s0,sp,388
 bfe:	0000                	unimp
 c00:	0622                	slli	a2,a2,0x8
 c02:	e000                	fsw	fs0,0(s0)
 c04:	003e                	0x3e
 c06:	0000                	unimp
 c08:	ec01                	bnez	s0,c20 <_min_stack-0x13e0>
 c0a:	221a                	fld	ft4,384(sp)
 c0c:	0006                	0x6
 c0e:	3ee0                	fld	fs0,248(a3)
 c10:	0000                	unimp
 c12:	1c00                	addi	s0,sp,560
 c14:	034c                	addi	a1,sp,388
 c16:	0000                	unimp
 c18:	571c                	lw	a5,40(a4)
 c1a:	00000003          	lb	zero,0(zero) # 0 <_min_stack-0x2000>
 c1e:	0000                	unimp
 c20:	47020103          	lb	sp,1136(tp) # 470 <_min_stack-0x1b90>
 c24:	0004                	addi	s1,sp,0
 c26:	1e00                	addi	s0,sp,816
 c28:	033a                	slli	t1,t1,0xe
 c2a:	0000                	unimp
 c2c:	c601                	beqz	a2,c34 <_min_stack-0x13cc>
 c2e:	00036103          	p.elw	sp,0(t1) # fffe0000 <pulp__FC+0xfffe0001>
 c32:	1f00                	addi	s0,sp,944
 c34:	03b1                	addi	t2,t2,12
 c36:	0000                	unimp
 c38:	c801                	beqz	s0,c48 <_min_stack-0x13b8>
 c3a:	0064                	addi	s1,sp,12
 c3c:	0000                	unimp
 c3e:	6920                	flw	fs0,80(a0)
 c40:	0100                	addi	s0,sp,128
 c42:	64c9                	lui	s1,0x12
 c44:	0000                	unimp
 c46:	0000                	unimp
 c48:	271e                	fld	fa4,448(sp)
 c4a:	0004                	addi	s1,sp,0
 c4c:	0100                	addi	s0,sp,128
 c4e:	03b9                	addi	t2,t2,14
 c50:	0382                	slli	t2,t2,0x0
 c52:	0000                	unimp
 c54:	b11f 0003 0100      	0x1000003b11f
 c5a:	000064bb          	0x64bb
 c5e:	2000                	fld	fs0,0(s0)
 c60:	0069                	c.addi	zero,26
 c62:	bc01                	j	672 <_min_stack-0x198e>
 c64:	0064                	addi	s1,sp,12
 c66:	0000                	unimp
 c68:	2100                	fld	fs0,0(a0)
 c6a:	03f0                	addi	a2,sp,460
 c6c:	0000                	unimp
 c6e:	b301                	j	96e <_min_stack-0x1692>
 c70:	0339                	addi	t1,t1,14
 c72:	0000                	unimp
 c74:	030e2103          	lw	sp,48(t3) # 19030 <_stack_len+0x11030>
 c78:	0000                	unimp
 c7a:	ad01                	j	128a <_min_stack-0xd76>
 c7c:	0339                	addi	t1,t1,14
 c7e:	0000                	unimp
 c80:	035f2203          	lw	tp,53(t5)
 c84:	0000                	unimp
 c86:	a201                	j	d86 <_min_stack-0x127a>
 c88:	0339                	addi	t1,t1,14
 c8a:	0000                	unimp
 c8c:	0003c103          	lbu	sp,0(t2)
 c90:	2300                	fld	fs0,0(a4)
 c92:	0000034f          	fnmadd.s	ft6,ft0,ft0,ft0,rne
 c96:	a201                	j	d96 <_min_stack-0x126a>
 c98:	008d                	addi	ra,ra,3
 c9a:	0000                	unimp
 c9c:	061f 0004 0100      	0x1000004061f
 ca2:	39a4                	fld	fs1,112(a1)
 ca4:	00000003          	lb	zero,0(zero) # 0 <_min_stack-0x2000>
 ca8:	7224                	flw	fs1,96(a2)
 caa:	01000003          	lb	zero,16(zero) # 10 <_min_stack-0x1ff0>
 cae:	03d9039b          	0x3d9039b
 cb2:	0000                	unimp
 cb4:	00034f23          	p.sb	zero,t5(t1)
 cb8:	0100                	addi	s0,sp,128
 cba:	00008d9b          	0x8d9b
 cbe:	0000                	unimp
 cc0:	e125                	bnez	a0,d20 <_min_stack-0x12e0>
 cc2:	0002                	0x2
 cc4:	0100                	addi	s0,sp,128
 cc6:	d0240383          	lb	t2,-766(s0) # fffffd02 <pulp__FC+0xfffffd03>
 cca:	01000003          	lb	zero,16(zero) # 10 <_min_stack-0x1ff0>
 cce:	037c                	addi	a5,sp,396
 cd0:	03f9                	addi	t2,t2,30
 cd2:	0000                	unimp
 cd4:	00030023          	sb	zero,0(t1)
 cd8:	0100                	addi	s0,sp,128
 cda:	647c                	flw	fa5,76(s0)
 cdc:	0000                	unimp
 cde:	0000                	unimp
 ce0:	4d21                	li	s10,8
 ce2:	0004                	addi	s1,sp,0
 ce4:	0100                	addi	s0,sp,128
 ce6:	7b72                	flw	fs6,60(sp)
 ce8:	0000                	unimp
 cea:	0300                	addi	s0,sp,384
 cec:	8921                	andi	a0,a0,8
 cee:	01000003          	lb	zero,16(zero) # 10 <_min_stack-0x1ff0>
 cf2:	7b68                	flw	fa0,116(a4)
 cf4:	0000                	unimp
 cf6:	0300                	addi	s0,sp,384
 cf8:	bf21                	j	c10 <_min_stack-0x13f0>
 cfa:	0002                	0x2
 cfc:	0100                	addi	s0,sp,128
 cfe:	3950                	fld	fa2,176(a0)
 d00:	03000003          	lb	zero,48(zero) # 30 <_min_stack-0x1fd0>
 d04:	d121                	beqz	a0,c44 <_min_stack-0x13bc>
 d06:	0002                	0x2
 d08:	0100                	addi	s0,sp,128
 d0a:	3936                	fld	fs2,360(sp)
 d0c:	03000003          	lb	zero,48(zero) # 30 <_min_stack-0x1fd0>
 d10:	1a26                	slli	s4,s4,0x29
 d12:	0000                	unimp
 d14:	1a00                	addi	s0,sp,304
 d16:	0000                	unimp
 d18:	0300                	addi	s0,sp,384
 d1a:	263c                	fld	fa5,72(a2)
 d1c:	00000077          	0x77
 d20:	00000077          	0x77
 d24:	24264e03          	lbu	t3,578(a2) # 8242 <_stack_len+0x242>
 d28:	0001                	nop
 d2a:	2400                	fld	fs0,8(s0)
 d2c:	0001                	nop
 d2e:	0300                	addi	s0,sp,384
 d30:	00ea0043          	fmadd.s	ft0,fs4,fa4,ft0,rne
 d34:	0000                	unimp
 d36:	0002                	0x2
 d38:	055f 0000 0104      	0x1040000055f
 d3e:	08f4                	addi	a3,sp,92
 d40:	0000                	unimp
 d42:	0188                	addi	a0,sp,192
 d44:	0000                	unimp
 d46:	7263732f          	0x7263732f
 d4a:	7461                	lui	s0,0xffff8
 d4c:	652f6863          	bltu	t5,s2,139c <_min_stack-0xc64>
 d50:	6170                	flw	fa2,68(a0)
 d52:	6972                	flw	fs2,28(sp)
 d54:	682f6973          	csrrsi	s2,0x682,30
 d58:	2d65                	jal	1410 <_min_stack-0xbf0>
 d5a:	2f636f73          	csrrsi	t5,0x2f6,6
 d5e:	6168                	flw	fa0,68(a0)
 d60:	6472                	flw	fs0,28(sp)
 d62:	65726177          	0x65726177
 d66:	726f772f          	0x726f772f
 d6a:	676e696b          	0x676e696b
 d6e:	645f 7269 6f2f      	0x6f2f7269645f
 d74:	6570                	flw	fa2,76(a0)
 d76:	746e                	flw	fs0,248(sp)
 d78:	7469                	lui	s0,0xffffa
 d7a:	6e61                	lui	t3,0x18
 d7c:	2f77682f          	0x2f77682f
 d80:	6f74                	flw	fa3,92(a4)
 d82:	5f70                	lw	a2,124(a4)
 d84:	6165                	addi	sp,sp,112
 d86:	6c72                	flw	fs8,28(sp)
 d88:	79657267          	0x79657267
 d8c:	2f77732f          	0x2f77732f
 d90:	6574                	flw	fa3,76(a0)
 d92:	2f737473          	csrrci	s0,0x2f7,6
 d96:	6d6d6f63          	bltu	s10,s6,1474 <_min_stack-0xb8c>
 d9a:	632f6e6f          	jal	t3,f73cc <tohost+0xd73c4>
 d9e:	7472                	flw	fs0,60(sp)
 da0:	2e30                	fld	fa2,88(a2)
 da2:	732f0053          	0x732f0053
 da6:	74617263          	bleu	t1,sp,14ea <_min_stack-0xb16>
 daa:	652f6863          	bltu	t5,s2,13fa <_min_stack-0xc06>
 dae:	6170                	flw	fa2,68(a0)
 db0:	6972                	flw	fs2,28(sp)
 db2:	682f6973          	csrrsi	s2,0x682,30
 db6:	2d65                	jal	146e <_min_stack-0xb92>
 db8:	2f636f73          	csrrsi	t5,0x2f6,6
 dbc:	6168                	flw	fa0,68(a0)
 dbe:	6472                	flw	fs0,28(sp)
 dc0:	65726177          	0x65726177
 dc4:	726f772f          	0x726f772f
 dc8:	676e696b          	0x676e696b
 dcc:	645f 7269 6f2f      	0x6f2f7269645f
 dd2:	6570                	flw	fa2,76(a0)
 dd4:	746e                	flw	fs0,248(sp)
 dd6:	7469                	lui	s0,0xffffa
 dd8:	6e61                	lui	t3,0x18
 dda:	2f77682f          	0x2f77682f
 dde:	6f74                	flw	fa3,92(a4)
 de0:	5f70                	lw	a2,124(a4)
 de2:	6165                	addi	sp,sp,112
 de4:	6c72                	flw	fs8,28(sp)
 de6:	79657267          	0x79657267
 dea:	2f77732f          	0x2f77732f
 dee:	6574                	flw	fa3,76(a0)
 df0:	2f737473          	csrrci	s0,0x2f7,6
 df4:	64616873          	csrrsi	a6,0x646,2
 df8:	7473776f          	jal	a4,38d3e <tohost+0x18d36>
 dfc:	6361                	lui	t1,0x18
 dfe:	34365f6b          	0x34365f6b
 e02:	6962                	flw	fs2,24(sp)
 e04:	5f74                	lw	a3,124(a4)
 e06:	4931                	li	s2,12
 e08:	635f5253          	0x635f5253
 e0c:	6c61                	lui	s8,0x18
 e0e:	006c                	addi	a1,sp,12
 e10:	20554e47          	fmsub.s	ft8,fa0,ft5,ft4,rmm
 e14:	5341                	li	t1,-16
 e16:	3220                	fld	fs0,96(a2)
 e18:	322e                	fld	ft4,232(sp)
 e1a:	2e38                	fld	fa4,88(a2)
 e1c:	0030                	addi	a2,sp,8
 e1e:	8001                	srli	s0,s0,0x0

Disassembly of section .debug_abbrev:

00000000 <.debug_abbrev>:
   0:	1101                	addi	sp,sp,-32
   2:	2501                	jal	602 <_min_stack-0x19fe>
   4:	130e                	slli	t1,t1,0x23
   6:	1b0e030b          	p.lb	t1,432(t3!) # 181b0 <_stack_len+0x101b0>
   a:	110e                	slli	sp,sp,0x23
   c:	1201                	addi	tp,tp,-32
   e:	1006                	0x1006
  10:	02000017          	auipc	zero,0x2000
  14:	0016                	0x16
  16:	0b3a0e03          	lb	t3,179(s4) # 39c23 <tohost+0x19c1b>
  1a:	13490b3b          	0x13490b3b
  1e:	0000                	unimp
  20:	0b000f03          	lb	t5,176(zero) # b0 <_min_stack-0x1f50>
  24:	000e030b          	p.lb	t1,0(t3!)
  28:	0400                	addi	s0,sp,512
  2a:	0024                	addi	s1,sp,8
  2c:	0b3e0b0b          	p.lb	s6,179(t3!)
  30:	00000803          	lb	a6,0(zero) # 0 <_min_stack-0x2000>
  34:	2405                	jal	254 <_min_stack-0x1dac>
  36:	0b00                	addi	s0,sp,400
  38:	030b3e0b          	0x30b3e0b
  3c:	000e                	0xe
  3e:	0600                	addi	s0,sp,768
  40:	0101                	addi	sp,sp,0
  42:	1349                	addi	t1,t1,-14
  44:	1301                	addi	t1,t1,-32
  46:	0000                	unimp
  48:	49002107          	flw	ft2,1168(zero) # 490 <_min_stack-0x1b70>
  4c:	000b2f13          	slti	t5,s6,0
  50:	0800                	addi	s0,sp,16
  52:	0026                	0x26
  54:	1349                	addi	t1,t1,-14
  56:	0000                	unimp
  58:	3409                	jal	fffffa5a <pulp__FC+0xfffffa5b>
  5a:	0300                	addi	s0,sp,384
  5c:	3a0e                	fld	fs4,224(sp)
  5e:	490b3b0b          	0x490b3b0b
  62:	02193f13          	sltiu	t5,s2,33
  66:	0018                	addi	a4,sp,0
  68:	0a00                	addi	s0,sp,272
  6a:	012e                	slli	sp,sp,0xb
  6c:	0e03193f 053b0b3a 	0x53b0b3a0e03193f
  74:	13491927          	0x13491927
  78:	0111                	addi	sp,sp,4
  7a:	0612                	slli	a2,a2,0x4
  7c:	1840                	addi	s0,sp,52
  7e:	01194297          	auipc	t0,0x1194
  82:	0b000013          	li	zero,176
  86:	0005                	c.addi	zero,1
  88:	0b3a0803          	lb	a6,179(s4)
  8c:	1349053b          	0x1349053b
  90:	1702                	slli	a4,a4,0x20
  92:	0000                	unimp
  94:	340c                	fld	fa1,40(s0)
  96:	0300                	addi	s0,sp,384
  98:	3a08                	fld	fa0,48(a2)
  9a:	49053b0b          	0x49053b0b
  9e:	00170213          	addi	tp,a4,1
  a2:	0d00                	addi	s0,sp,656
  a4:	011d                	addi	sp,sp,7
  a6:	1331                	addi	t1,t1,-20
  a8:	0152                	slli	sp,sp,0x14
  aa:	1755                	addi	a4,a4,-11
  ac:	0b58                	addi	a4,sp,404
  ae:	0559                	addi	a0,a0,22
  b0:	1301                	addi	t1,t1,-32
  b2:	0000                	unimp
  b4:	050e                	slli	a0,a0,0x3
  b6:	3100                	fld	fs0,32(a0)
  b8:	00170213          	addi	tp,a4,1
  bc:	0f00                	addi	s0,sp,912
  be:	011d                	addi	sp,sp,7
  c0:	1331                	addi	t1,t1,-20
  c2:	0152                	slli	sp,sp,0x14
  c4:	1755                	addi	a4,a4,-11
  c6:	0b58                	addi	a4,sp,404
  c8:	0b59                	addi	s6,s6,22
  ca:	0000                	unimp
  cc:	1d10                	addi	a2,sp,688
  ce:	3101                	jal	fffffcce <pulp__FC+0xfffffccf>
  d0:	12011113          	0x12011113
  d4:	5806                	lw	a6,96(sp)
  d6:	0005590b          	p.lhu	s2,0(a0!)
  da:	1100                	addi	s0,sp,160
  dc:	0005                	c.addi	zero,1
  de:	1331                	addi	t1,t1,-20
  e0:	0000                	unimp
  e2:	1d12                	slli	s10,s10,0x24
  e4:	3101                	jal	fffffce4 <pulp__FC+0xfffffce5>
  e6:	12011113          	0x12011113
  ea:	5806                	lw	a6,96(sp)
  ec:	000b590b          	p.lhu	s2,0(s6!)
  f0:	1300                	addi	s0,sp,416
  f2:	0b0b000f          	0xb0b000f
  f6:	1349                	addi	t1,t1,-14
  f8:	0000                	unimp
  fa:	0514                	addi	a3,sp,640
  fc:	0300                	addi	s0,sp,384
  fe:	3a0e                	fld	fs4,224(sp)
 100:	49053b0b          	0x49053b0b
 104:	00170213          	addi	tp,a4,1
 108:	1500                	addi	s0,sp,672
 10a:	0018                	addi	a4,sp,0
 10c:	0000                	unimp
 10e:	3416                	fld	fs0,352(sp)
 110:	0300                	addi	s0,sp,384
 112:	3a08                	fld	fa0,48(a2)
 114:	49053b0b          	0x49053b0b
 118:	17000013          	li	zero,368
 11c:	0034                	addi	a3,sp,8
 11e:	0b3a0803          	lb	a6,179(s4)
 122:	1349053b          	0x1349053b
 126:	1802                	slli	a6,a6,0x20
 128:	0000                	unimp
 12a:	1d18                	addi	a4,sp,688
 12c:	3101                	jal	fffffd2c <pulp__FC+0xfffffd2d>
 12e:	55015213          	0x55015213
 132:	590b5817          	auipc	a6,0x590b5
 136:	0005                	c.addi	zero,1
 138:	1900                	addi	s0,sp,176
 13a:	1755010b          	p.lb	sp,373(a0!)
 13e:	0000                	unimp
 140:	341a                	fld	fs0,416(sp)
 142:	3100                	fld	fs0,32(a0)
 144:	00170213          	addi	tp,a4,1
 148:	1b00                	addi	s0,sp,432
 14a:	0034                	addi	a3,sp,8
 14c:	1331                	addi	t1,t1,-20
 14e:	1802                	slli	a6,a6,0x20
 150:	0000                	unimp
 152:	0a1c                	addi	a5,sp,272
 154:	3100                	fld	fs0,32(a0)
 156:	00011113          	slli	sp,sp,0x0
 15a:	1d00                	addi	s0,sp,688
 15c:	1331010b          	p.lb	sp,307(sp!) # 3cced <tohost+0x1cce5>
 160:	1755                	addi	a4,a4,-11
 162:	1301                	addi	t1,t1,-32
 164:	0000                	unimp
 166:	891e                	mv	s2,t2
 168:	0182                	slli	gp,gp,0x0
 16a:	1100                	addi	s0,sp,160
 16c:	3101                	jal	fffffd6c <pulp__FC+0xfffffd6d>
 16e:	1f000013          	li	zero,496
 172:	011d                	addi	sp,sp,7
 174:	1331                	addi	t1,t1,-20
 176:	0111                	addi	sp,sp,4
 178:	0612                	slli	a2,a2,0x4
 17a:	0b58                	addi	a4,sp,404
 17c:	0559                	addi	a0,a0,22
 17e:	1301                	addi	t1,t1,-32
 180:	0000                	unimp
 182:	8920                	0x8920
 184:	0182                	slli	gp,gp,0x0
 186:	1101                	addi	sp,sp,-32
 188:	3101                	jal	fffffd88 <pulp__FC+0xfffffd89>
 18a:	21000013          	li	zero,528
 18e:	828a                	mv	t0,sp
 190:	0001                	nop
 192:	1331                	addi	t1,t1,-20
 194:	4291                	li	t0,4
 196:	0018                	addi	a4,sp,0
 198:	2200                	fld	fs0,0(a2)
 19a:	8289                	srli	a3,a3,0x2
 19c:	0101                	addi	sp,sp,0
 19e:	0111                	addi	sp,sp,4
 1a0:	1331                	addi	t1,t1,-20
 1a2:	1301                	addi	t1,t1,-32
 1a4:	0000                	unimp
 1a6:	01828a23          	sb	s8,20(t0) # 1194092 <tohost+0x117408a>
 1aa:	0200                	addi	s0,sp,256
 1ac:	9118                	0x9118
 1ae:	1842                	slli	a6,a6,0x30
 1b0:	0000                	unimp
 1b2:	2e24                	fld	fs1,88(a2)
 1b4:	0301                	addi	t1,t1,0
 1b6:	3a0e                	fld	fs4,224(sp)
 1b8:	270b3b0b          	0x270b3b0b
 1bc:	4919                	li	s2,6
 1be:	010b2013          	slti	zero,s6,16
 1c2:	25000013          	li	zero,592
 1c6:	0005                	c.addi	zero,1
 1c8:	0b3a0803          	lb	a6,179(s4)
 1cc:	13490b3b          	0x13490b3b
 1d0:	0000                	unimp
 1d2:	0526                	slli	a0,a0,0x9
 1d4:	0300                	addi	s0,sp,384
 1d6:	3a0e                	fld	fs4,224(sp)
 1d8:	490b3b0b          	0x490b3b0b
 1dc:	27000013          	li	zero,624
 1e0:	0034                	addi	a3,sp,8
 1e2:	0b3a0e03          	lb	t3,179(s4)
 1e6:	13490b3b          	0x13490b3b
 1ea:	0000                	unimp
 1ec:	3428                	fld	fa0,104(s0)
 1ee:	0300                	addi	s0,sp,384
 1f0:	3a08                	fld	fa0,48(a2)
 1f2:	490b3b0b          	0x490b3b0b
 1f6:	29000013          	li	zero,656
 1fa:	000a                	0xa
 1fc:	0b3a0803          	lb	a6,179(s4)
 200:	0000053b          	0x53b
 204:	0b2a                	slli	s6,s6,0xa
 206:	0001                	nop
 208:	2b00                	fld	fs0,16(a4)
 20a:	012e                	slli	sp,sp,0xb
 20c:	0b3a0e03          	lb	t3,179(s4)
 210:	19270b3b          	0x19270b3b
 214:	0b20                	addi	s0,sp,408
 216:	1301                	addi	t1,t1,-32
 218:	0000                	unimp
 21a:	2e2c                	fld	fa1,88(a2)
 21c:	3f01                	jal	12c <_min_stack-0x1ed4>
 21e:	0319                	addi	t1,t1,6
 220:	3a0e                	fld	fs4,224(sp)
 222:	270b3b0b          	0x270b3b0b
 226:	4919                	li	s2,6
 228:	010b2013          	slti	zero,s6,16
 22c:	2d000013          	li	zero,720
 230:	002e                	0x2e
 232:	0e03193f 0b3b0b3a 	0xb3b0b3a0e03193f
 23a:	01111927          	0x1111927
 23e:	0612                	slli	a2,a2,0x4
 240:	1840                	addi	s0,sp,52
 242:	00194297          	auipc	t0,0x194
 246:	2e00                	fld	fs0,24(a2)
 248:	012e                	slli	sp,sp,0xb
 24a:	0e03193f 0b3b0b3a 	0xb3b0b3a0e03193f
 252:	0b201927          	0xb201927
 256:	1301                	addi	t1,t1,-32
 258:	0000                	unimp
 25a:	3f002e2f          	0x3f002e2f
 25e:	0319                	addi	t1,t1,6
 260:	3a0e                	fld	fs4,224(sp)
 262:	490b3b0b          	0x490b3b0b
 266:	12011113          	0x12011113
 26a:	4006                	0x4006
 26c:	9718                	0x9718
 26e:	1942                	slli	s2,s2,0x30
 270:	0000                	unimp
 272:	2e30                	fld	fa2,88(a2)
 274:	3f01                	jal	184 <_min_stack-0x1e7c>
 276:	0319                	addi	t1,t1,6
 278:	3a0e                	fld	fs4,224(sp)
 27a:	270b3b0b          	0x270b3b0b
 27e:	1119                	addi	sp,sp,-26
 280:	1201                	addi	tp,tp,-32
 282:	4006                	0x4006
 284:	9718                	0x9718
 286:	1942                	slli	s2,s2,0x30
 288:	1301                	addi	t1,t1,-32
 28a:	0000                	unimp
 28c:	0531                	addi	a0,a0,12
 28e:	0300                	addi	s0,sp,384
 290:	3a08                	fld	fa0,48(a2)
 292:	490b3b0b          	0x490b3b0b
 296:	00170213          	addi	tp,a4,1
 29a:	3200                	fld	fs0,32(a2)
 29c:	0034                	addi	a3,sp,8
 29e:	0b3a0803          	lb	a6,179(s4)
 2a2:	13490b3b          	0x13490b3b
 2a6:	1702                	slli	a4,a4,0x20
 2a8:	0000                	unimp
 2aa:	03000533          	mul	a0,zero,a6
 2ae:	3a0e                	fld	fs4,224(sp)
 2b0:	490b3b0b          	0x490b3b0b
 2b4:	00180213          	addi	tp,a6,1 # 590b5133 <tohost+0x5909512b>
 2b8:	3400                	fld	fs0,40(s0)
 2ba:	0005                	c.addi	zero,1
 2bc:	0b3a0e03          	lb	t3,179(s4)
 2c0:	13490b3b          	0x13490b3b
 2c4:	1702                	slli	a4,a4,0x20
 2c6:	0000                	unimp
 2c8:	8935                	andi	a0,a0,13
 2ca:	0182                	slli	gp,gp,0x0
 2cc:	1101                	addi	sp,sp,-32
 2ce:	9501                	srai	a0,a0,0x20
 2d0:	1942                	slli	s2,s2,0x30
 2d2:	1331                	addi	t1,t1,-20
 2d4:	0000                	unimp
 2d6:	2e36                	fld	ft8,328(sp)
 2d8:	3101                	jal	fffffed8 <pulp__FC+0xfffffed9>
 2da:	12011113          	0x12011113
 2de:	4006                	0x4006
 2e0:	9718                	0x9718
 2e2:	1942                	slli	s2,s2,0x30
 2e4:	1301                	addi	t1,t1,-32
 2e6:	0000                	unimp
 2e8:	31000537          	lui	a0,0x31000
 2ec:	00180213          	addi	tp,a6,1
 2f0:	3800                	fld	fs0,48(s0)
 2f2:	0005                	c.addi	zero,1
 2f4:	1331                	addi	t1,t1,-20
 2f6:	0b1c                	addi	a5,sp,400
 2f8:	0000                	unimp
 2fa:	1d39                	addi	s10,s10,-18
 2fc:	3101                	jal	fffffefc <pulp__FC+0xfffffefd>
 2fe:	55015213          	0x55015213
 302:	590b5817          	auipc	a6,0x590b5
 306:	0013010b          	p.lb	sp,1(t1!) # 18001 <_stack_len+0x10001>
 30a:	3a00                	fld	fs0,48(a2)
 30c:	011d                	addi	sp,sp,7
 30e:	1331                	addi	t1,t1,-20
 310:	0111                	addi	sp,sp,4
 312:	0612                	slli	a2,a2,0x4
 314:	0b58                	addi	a4,sp,404
 316:	0b59                	addi	s6,s6,22
 318:	1301                	addi	t1,t1,-32
 31a:	0000                	unimp
 31c:	31010b3b          	0x31010b3b
 320:	12011113          	0x12011113
 324:	0106                	slli	sp,sp,0x1
 326:	3c000013          	li	zero,960
 32a:	0034                	addi	a3,sp,8
 32c:	1331                	addi	t1,t1,-20
 32e:	0000                	unimp
 330:	2e3d                	jal	66e <_min_stack-0x1992>
 332:	3101                	jal	ffffff32 <pulp__FC+0xffffff33>
 334:	12011113          	0x12011113
 338:	4006                	0x4006
 33a:	9718                	0x9718
 33c:	1942                	slli	s2,s2,0x30
 33e:	0000                	unimp
 340:	0100                	addi	s0,sp,128
 342:	0111                	addi	sp,sp,4
 344:	0e25                	addi	t3,t3,9
 346:	0e030b13          	addi	s6,t1,224
 34a:	17550e1b          	0x17550e1b
 34e:	0111                	addi	sp,sp,4
 350:	1710                	addi	a2,sp,928
 352:	0000                	unimp
 354:	2402                	fld	fs0,0(sp)
 356:	0b00                	addi	s0,sp,400
 358:	030b3e0b          	0x30b3e0b
 35c:	0008                	addi	a0,sp,0
 35e:	0300                	addi	s0,sp,384
 360:	0024                	addi	s1,sp,8
 362:	0b3e0b0b          	p.lb	s6,179(t3!)
 366:	00000e03          	lb	t3,0(zero) # 0 <_min_stack-0x2000>
 36a:	1604                	addi	s1,sp,800
 36c:	0300                	addi	s0,sp,384
 36e:	3a0e                	fld	fs4,224(sp)
 370:	490b3b0b          	0x490b3b0b
 374:	05000013          	li	zero,80
 378:	0035                	c.addi	zero,13
 37a:	1349                	addi	t1,t1,-14
 37c:	0000                	unimp
 37e:	1306                	slli	t1,t1,0x21
 380:	0301                	addi	t1,t1,0
 382:	0b0e                	slli	s6,s6,0x3
 384:	3b0b3a0b          	0x3b0b3a0b
 388:	0013010b          	p.lb	sp,1(t1!)
 38c:	0700                	addi	s0,sp,896
 38e:	000d                	c.addi	zero,3
 390:	0b3a0e03          	lb	t3,179(s4)
 394:	13490b3b          	0x13490b3b
 398:	0b38                	addi	a4,sp,408
 39a:	0000                	unimp
 39c:	0d08                	addi	a0,sp,656
 39e:	0300                	addi	s0,sp,384
 3a0:	3a08                	fld	fa0,48(a2)
 3a2:	490b3b0b          	0x490b3b0b
 3a6:	000b3813          	sltiu	a6,s6,0
 3aa:	0900                	addi	s0,sp,144
 3ac:	0b0b000f          	0xb0b000f
 3b0:	1349                	addi	t1,t1,-14
 3b2:	0000                	unimp
 3b4:	340a                	fld	fs0,160(sp)
 3b6:	0300                	addi	s0,sp,384
 3b8:	3a0e                	fld	fs4,224(sp)
 3ba:	490b3b0b          	0x490b3b0b
 3be:	02193f13          	sltiu	t5,s2,33
 3c2:	0018                	addi	a4,sp,0
 3c4:	0b00                	addi	s0,sp,400
 3c6:	012e                	slli	sp,sp,0xb
 3c8:	0e03193f 0b3b0b3a 	0xb3b0b3a0e03193f
 3d0:	13491927          	0x13491927
 3d4:	0111                	addi	sp,sp,4
 3d6:	0612                	slli	a2,a2,0x4
 3d8:	1840                	addi	s0,sp,52
 3da:	01194297          	auipc	t0,0x1194
 3de:	0c000013          	li	zero,192
 3e2:	0005                	c.addi	zero,1
 3e4:	0b3a0e03          	lb	t3,179(s4)
 3e8:	13490b3b          	0x13490b3b
 3ec:	1702                	slli	a4,a4,0x20
 3ee:	0000                	unimp
 3f0:	340d                	jal	fffffe12 <pulp__FC+0xfffffe13>
 3f2:	0300                	addi	s0,sp,384
 3f4:	3a0e                	fld	fs4,224(sp)
 3f6:	49053b0b          	0x49053b0b
 3fa:	00061c13          	slli	s8,a2,0x0
 3fe:	0e00                	addi	s0,sp,784
 400:	0034                	addi	a3,sp,8
 402:	0b3a0803          	lb	a6,179(s4)
 406:	1349053b          	0x1349053b
 40a:	1702                	slli	a4,a4,0x20
 40c:	0000                	unimp
 40e:	0300340f          	0x300340f
 412:	3a0e                	fld	fs4,224(sp)
 414:	49053b0b          	0x49053b0b
 418:	000d1c13          	slli	s8,s10,0x0
 41c:	1000                	addi	s0,sp,32
 41e:	8289                	srli	a3,a3,0x2
 420:	0101                	addi	sp,sp,0
 422:	0111                	addi	sp,sp,4
 424:	1331                	addi	t1,t1,-20
 426:	1301                	addi	t1,t1,-32
 428:	0000                	unimp
 42a:	8a11                	andi	a2,a2,4
 42c:	0182                	slli	gp,gp,0x0
 42e:	0200                	addi	s0,sp,256
 430:	9118                	0x9118
 432:	1842                	slli	a6,a6,0x30
 434:	0000                	unimp
 436:	8912                	mv	s2,tp
 438:	0182                	slli	gp,gp,0x0
 43a:	1100                	addi	s0,sp,160
 43c:	3101                	jal	3c <_min_stack-0x1fc4>
 43e:	13000013          	li	zero,304
 442:	012e                	slli	sp,sp,0xb
 444:	0e03193f 0b3b0b3a 	0xb3b0b3a0e03193f
 44c:	01111927          	0x1111927
 450:	0612                	slli	a2,a2,0x4
 452:	1840                	addi	s0,sp,52
 454:	01194297          	auipc	t0,0x1194
 458:	14000013          	li	zero,320
 45c:	0034                	addi	a3,sp,8
 45e:	0b3a0e03          	lb	t3,179(s4)
 462:	13490b3b          	0x13490b3b
 466:	0d1c                	addi	a5,sp,656
 468:	0000                	unimp
 46a:	3415                	jal	fffffe8e <pulp__FC+0xfffffe8f>
 46c:	0300                	addi	s0,sp,384
 46e:	3a0e                	fld	fs4,224(sp)
 470:	490b3b0b          	0x490b3b0b
 474:	00170213          	addi	tp,a4,1
 478:	1600                	addi	s0,sp,800
 47a:	001d                	c.addi	zero,7
 47c:	1331                	addi	t1,t1,-20
 47e:	0152                	slli	sp,sp,0x14
 480:	1755                	addi	a4,a4,-11
 482:	0b58                	addi	a4,sp,404
 484:	0b59                	addi	s6,s6,22
 486:	0000                	unimp
 488:	31011d17          	auipc	s10,0x31011
 48c:	12011113          	0x12011113
 490:	5806                	lw	a6,96(sp)
 492:	010b590b          	p.lhu	s2,16(s6!)
 496:	18000013          	li	zero,384
 49a:	0005                	c.addi	zero,1
 49c:	1331                	addi	t1,t1,-20
 49e:	0000                	unimp
 4a0:	1d19                	addi	s10,s10,-26
 4a2:	3100                	fld	fs0,32(a0)
 4a4:	12011113          	0x12011113
 4a8:	5806                	lw	a6,96(sp)
 4aa:	000b590b          	p.lhu	s2,0(s6!)
 4ae:	1a00                	addi	s0,sp,304
 4b0:	0111010b          	p.lb	sp,17(sp!)
 4b4:	0612                	slli	a2,a2,0x4
 4b6:	0000                	unimp
 4b8:	3100341b          	0x3100341b
 4bc:	00170213          	addi	tp,a4,1
 4c0:	1c00                	addi	s0,sp,560
 4c2:	0034                	addi	a3,sp,8
 4c4:	1331                	addi	t1,t1,-20
 4c6:	0000                	unimp
 4c8:	1d1d                	addi	s10,s10,-25
 4ca:	3101                	jal	ca <_min_stack-0x1f36>
 4cc:	12011113          	0x12011113
 4d0:	5806                	lw	a6,96(sp)
 4d2:	000b590b          	p.lhu	s2,0(s6!)
 4d6:	1e00                	addi	s0,sp,816
 4d8:	012e                	slli	sp,sp,0xb
 4da:	0b3a0e03          	lb	t3,179(s4)
 4de:	0b200b3b          	0xb200b3b
 4e2:	1301                	addi	t1,t1,-32
 4e4:	0000                	unimp
 4e6:	341f 0300 3a0e      	0x3a0e0300341f
 4ec:	490b3b0b          	0x490b3b0b
 4f0:	20000013          	li	zero,512
 4f4:	0034                	addi	a3,sp,8
 4f6:	0b3a0803          	lb	a6,179(s4)
 4fa:	13490b3b          	0x13490b3b
 4fe:	0000                	unimp
 500:	2e21                	jal	818 <_min_stack-0x17e8>
 502:	0300                	addi	s0,sp,384
 504:	3a0e                	fld	fs4,224(sp)
 506:	490b3b0b          	0x490b3b0b
 50a:	000b2013          	slti	zero,s6,0
 50e:	2200                	fld	fs0,0(a2)
 510:	012e                	slli	sp,sp,0xb
 512:	0b3a0e03          	lb	t3,179(s4)
 516:	19270b3b          	0x19270b3b
 51a:	1349                	addi	t1,t1,-14
 51c:	0b20                	addi	s0,sp,408
 51e:	1301                	addi	t1,t1,-32
 520:	0000                	unimp
 522:	03000523          	sb	a6,42(zero) # 2a <_min_stack-0x1fd6>
 526:	3a0e                	fld	fs4,224(sp)
 528:	490b3b0b          	0x490b3b0b
 52c:	24000013          	li	zero,576
 530:	012e                	slli	sp,sp,0xb
 532:	0b3a0e03          	lb	t3,179(s4)
 536:	19270b3b          	0x19270b3b
 53a:	0b20                	addi	s0,sp,408
 53c:	1301                	addi	t1,t1,-32
 53e:	0000                	unimp
 540:	2e25                	jal	878 <_min_stack-0x1788>
 542:	0300                	addi	s0,sp,384
 544:	3a0e                	fld	fs4,224(sp)
 546:	200b3b0b          	0x200b3b0b
 54a:	2600000b          	p.lb	zero,608(zero!) # 260 <_min_stack-0x1da0>
 54e:	002e                	0x2e
 550:	193c193f 0e030e6e 	0xe030e6e193c193f
 558:	0b3a                	slli	s6,s6,0xe
 55a:	00000b3b          	0xb3b
 55e:	0100                	addi	s0,sp,128
 560:	0011                	c.addi	zero,4
 562:	0610                	addi	a2,sp,768
 564:	0655                	addi	a2,a2,21
 566:	081b0803          	lb	a6,129(s6)
 56a:	0825                	addi	a6,a6,9
 56c:	00000513          	li	a0,0
	...

Disassembly of section .debug_loc:

00000000 <.debug_loc>:
   0:	0462                	slli	s0,s0,0x18
   2:	0000                	unimp
   4:	0472                	slli	s0,s0,0x1c
   6:	0000                	unimp
   8:	0001                	nop
   a:	725a                	flw	ft4,180(sp)
   c:	0004                	addi	s1,sp,0
   e:	9800                	0x9800
  10:	0004                	addi	s1,sp,0
  12:	0400                	addi	s0,sp,512
  14:	f300                	fsw	fs0,32(a4)
  16:	5a01                	li	s4,-32
  18:	989f 0004 9a00      	0x9a000004989f
  1e:	0004                	addi	s1,sp,0
  20:	0100                	addi	s0,sp,128
  22:	5a00                	lw	s0,48(a2)
  24:	049a                	slli	s1,s1,0x6
  26:	0000                	unimp
  28:	049c                	addi	a5,sp,576
  2a:	0000                	unimp
  2c:	0004                	addi	s1,sp,0
  2e:	9f5a01f3          	0x9f5a01f3
	...
  3a:	0462                	slli	s0,s0,0x18
  3c:	0000                	unimp
  3e:	0472                	slli	s0,s0,0x1c
  40:	0000                	unimp
  42:	0002                	0x2
  44:	9f30                	0x9f30
  46:	0472                	slli	s0,s0,0x1c
  48:	0000                	unimp
  4a:	0486                	slli	s1,s1,0x1
  4c:	0000                	unimp
  4e:	0001                	nop
  50:	985a                	add	a6,a6,s6
  52:	0004                	addi	s1,sp,0
  54:	9c00                	0x9c00
  56:	0004                	addi	s1,sp,0
  58:	0200                	addi	s0,sp,256
  5a:	3000                	fld	fs0,32(s0)
  5c:	009f 0000 0000      	0x9f
  62:	0000                	unimp
  64:	7400                	flw	fs0,40(s0)
  66:	0004                	addi	s1,sp,0
  68:	8400                	0x8400
  6a:	0004                	addi	s1,sp,0
  6c:	0600                	addi	s0,sp,768
  6e:	7c00                	flw	fs0,56(s0)
  70:	0800                	addi	s0,sp,16
  72:	1aff                	0x1aff
  74:	849f 0004 8600      	0x86000004849f
  7a:	0004                	addi	s1,sp,0
  7c:	0700                	addi	s0,sp,896
  7e:	7e00                	flw	fs0,56(a2)
  80:	0600                	addi	s0,sp,768
  82:	ff08                	fsw	fa0,56(a4)
  84:	9f1a                	add	t5,t5,t1
	...
  8e:	0474                	addi	a3,sp,524
  90:	0000                	unimp
  92:	047e                	slli	s0,s0,0x1f
  94:	0000                	unimp
  96:	0001                	nop
  98:	005c                	addi	a5,sp,4
  9a:	0000                	unimp
  9c:	0000                	unimp
  9e:	0000                	unimp
  a0:	c200                	sw	s0,0(a2)
  a2:	0002                	0x2
  a4:	1a00                	addi	s0,sp,304
  a6:	01000003          	lb	zero,16(zero) # 10 <_min_stack-0x1ff0>
  aa:	5a00                	lw	s0,48(a2)
  ac:	031a                	slli	t1,t1,0x6
  ae:	0000                	unimp
  b0:	03d8                	addi	a4,sp,452
  b2:	0000                	unimp
  b4:	0004                	addi	s1,sp,0
  b6:	9f5a01f3          	0x9f5a01f3
  ba:	03d8                	addi	a4,sp,452
  bc:	0000                	unimp
  be:	03da                	slli	t2,t2,0x16
  c0:	0000                	unimp
  c2:	0001                	nop
  c4:	da5a                	sw	s6,52(sp)
  c6:	58000003          	lb	zero,1408(zero) # 580 <_min_stack-0x1a80>
  ca:	0004                	addi	s1,sp,0
  cc:	0400                	addi	s0,sp,512
  ce:	f300                	fsw	fs0,32(a4)
  d0:	5a01                	li	s4,-32
  d2:	009f 0000 0000      	0x9f
  d8:	0000                	unimp
  da:	f400                	fsw	fs0,40(s0)
  dc:	0002                	0x2
  de:	da00                	sw	s0,48(a2)
  e0:	02000003          	lb	zero,32(zero) # 20 <_min_stack-0x1fe0>
  e4:	3000                	fld	fs0,32(s0)
  e6:	f89f 0003 5800      	0x58000003f89f
  ec:	0004                	addi	s1,sp,0
  ee:	0200                	addi	s0,sp,256
  f0:	3000                	fld	fs0,32(s0)
  f2:	009f 0000 0000      	0x9f
  f8:	0000                	unimp
  fa:	f400                	fsw	fs0,40(s0)
  fc:	0002                	0x2
  fe:	da00                	sw	s0,48(a2)
 100:	01000003          	lb	zero,16(zero) # 10 <_min_stack-0x1ff0>
 104:	6400                	flw	fs0,8(s0)
 106:	03f8                	addi	a4,sp,460
 108:	0000                	unimp
 10a:	0458                	addi	a4,sp,516
 10c:	0000                	unimp
 10e:	0001                	nop
 110:	0064                	addi	s1,sp,12
 112:	0000                	unimp
 114:	0000                	unimp
 116:	0000                	unimp
 118:	f400                	fsw	fs0,40(s0)
 11a:	0002                	0x2
 11c:	1a00                	addi	s0,sp,304
 11e:	01000003          	lb	zero,16(zero) # 10 <_min_stack-0x1ff0>
 122:	5a00                	lw	s0,48(a2)
 124:	031a                	slli	t1,t1,0x6
 126:	0000                	unimp
 128:	0324                	addi	s1,sp,392
 12a:	0000                	unimp
 12c:	0001                	nop
 12e:	2469                	jal	3b8 <_min_stack-0x1c48>
 130:	28000003          	lb	zero,640(zero) # 280 <_min_stack-0x1d80>
 134:	01000003          	lb	zero,16(zero) # 10 <_min_stack-0x1ff0>
 138:	5800                	lw	s0,48(s0)
 13a:	0328                	addi	a0,sp,392
 13c:	0000                	unimp
 13e:	032e                	slli	t1,t1,0xb
 140:	0000                	unimp
 142:	01780003          	lb	zero,23(a6) # 590b5319 <tohost+0x59095311>
 146:	2e9f 0003 3600      	0x360000032e9f
 14c:	01000003          	lb	zero,16(zero) # 10 <_min_stack-0x1ff0>
 150:	6900                	flw	fs0,16(a0)
 152:	0336                	slli	t1,t1,0xd
 154:	0000                	unimp
 156:	036c                	addi	a1,sp,396
 158:	0000                	unimp
 15a:	0001                	nop
 15c:	6c58                	flw	fa4,28(s0)
 15e:	7c000003          	lb	zero,1984(zero) # 7c0 <_min_stack-0x1840>
 162:	03000003          	lb	zero,48(zero) # 30 <_min_stack-0x1fd0>
 166:	7800                	flw	fs0,48(s0)
 168:	9f7f                	0x9f7f
 16a:	037c                	addi	a5,sp,396
 16c:	0000                	unimp
 16e:	03d8                	addi	a4,sp,452
 170:	0000                	unimp
 172:	0001                	nop
 174:	d858                	sw	a4,52(s0)
 176:	da000003          	lb	zero,-608(zero) # fffffda0 <pulp__FC+0xfffffda1>
 17a:	01000003          	lb	zero,16(zero) # 10 <_min_stack-0x1ff0>
 17e:	5a00                	lw	s0,48(a2)
 180:	03f8                	addi	a4,sp,460
 182:	0000                	unimp
 184:	0458                	addi	a4,sp,516
 186:	0000                	unimp
 188:	0001                	nop
 18a:	0058                	addi	a4,sp,4
 18c:	0000                	unimp
 18e:	0000                	unimp
 190:	0000                	unimp
 192:	3600                	fld	fs0,40(a2)
 194:	6a000003          	lb	zero,1696(zero) # 6a0 <_min_stack-0x1960>
 198:	02000003          	lb	zero,32(zero) # 20 <_min_stack-0x1fe0>
 19c:	3000                	fld	fs0,32(s0)
 19e:	6a9f 0003 7800      	0x780000036a9f
 1a4:	01000003          	lb	zero,16(zero) # 10 <_min_stack-0x1ff0>
 1a8:	5b00                	lw	s0,48(a4)
 1aa:	0378                	addi	a4,sp,396
 1ac:	0000                	unimp
 1ae:	037c                	addi	a5,sp,396
 1b0:	0000                	unimp
 1b2:	0001                	nop
 1b4:	7c5d                	lui	s8,0xffff7
 1b6:	88000003          	lb	zero,-1920(zero) # fffff880 <pulp__FC+0xfffff881>
 1ba:	01000003          	lb	zero,16(zero) # 10 <_min_stack-0x1ff0>
 1be:	5b00                	lw	s0,48(a4)
 1c0:	03cc                	addi	a1,sp,452
 1c2:	0000                	unimp
 1c4:	03d8                	addi	a4,sp,452
 1c6:	0000                	unimp
 1c8:	0002                	0x2
 1ca:	9f30                	0x9f30
	...
 1d4:	0336                	slli	t1,t1,0xd
 1d6:	0000                	unimp
 1d8:	034a                	slli	t1,t1,0x12
 1da:	0000                	unimp
 1dc:	0002                	0x2
 1de:	9f30                	0x9f30
 1e0:	034a                	slli	t1,t1,0x12
 1e2:	0000                	unimp
 1e4:	03c5                	addi	t2,t2,17
 1e6:	0000                	unimp
 1e8:	0001                	nop
 1ea:	cc5e                	sw	s7,24(sp)
 1ec:	d4000003          	lb	zero,-704(zero) # fffffd40 <pulp__FC+0xfffffd41>
 1f0:	02000003          	lb	zero,32(zero) # 20 <_min_stack-0x1fe0>
 1f4:	3000                	fld	fs0,32(s0)
 1f6:	d49f 0003 d600      	0xd6000003d49f
 1fc:	02000003          	lb	zero,32(zero) # 20 <_min_stack-0x1fe0>
 200:	3100                	fld	fs0,32(a0)
 202:	d69f 0003 d800      	0xd8000003d69f
 208:	01000003          	lb	zero,16(zero) # 10 <_min_stack-0x1ff0>
 20c:	5e00                	lw	s0,56(a2)
 20e:	03f8                	addi	a4,sp,460
 210:	0000                	unimp
 212:	00000403          	lb	s0,0(zero) # 0 <_min_stack-0x2000>
 216:	0001                	nop
 218:	085e                	slli	a6,a6,0x17
 21a:	0004                	addi	s1,sp,0
 21c:	1700                	addi	s0,sp,928
 21e:	0004                	addi	s1,sp,0
 220:	0100                	addi	s0,sp,128
 222:	5e00                	lw	s0,56(a2)
 224:	041e                	slli	s0,s0,0x7
 226:	0000                	unimp
 228:	042d                	addi	s0,s0,11
 22a:	0000                	unimp
 22c:	0001                	nop
 22e:	345e                	fld	fs0,496(sp)
 230:	0004                	addi	s1,sp,0
 232:	4300                	lw	s0,0(a4)
 234:	0004                	addi	s1,sp,0
 236:	0100                	addi	s0,sp,128
 238:	5e00                	lw	s0,56(a2)
 23a:	044a                	slli	s0,s0,0x12
 23c:	0000                	unimp
 23e:	0458                	addi	a4,sp,516
 240:	0000                	unimp
 242:	0001                	nop
 244:	005e                	0x5e
 246:	0000                	unimp
 248:	0000                	unimp
 24a:	0000                	unimp
 24c:	f400                	fsw	fs0,40(s0)
 24e:	0002                	0x2
 250:	1a00                	addi	s0,sp,304
 252:	02000003          	lb	zero,32(zero) # 20 <_min_stack-0x1fe0>
 256:	3000                	fld	fs0,32(s0)
 258:	1a9f 0003 d800      	0xd80000031a9f
 25e:	01000003          	lb	zero,16(zero) # 10 <_min_stack-0x1ff0>
 262:	6a00                	flw	fs0,16(a2)
 264:	03d8                	addi	a4,sp,452
 266:	0000                	unimp
 268:	03da                	slli	t2,t2,0x16
 26a:	0000                	unimp
 26c:	0002                	0x2
 26e:	9f30                	0x9f30
 270:	03f8                	addi	a4,sp,460
 272:	0000                	unimp
 274:	0458                	addi	a4,sp,516
 276:	0000                	unimp
 278:	0001                	nop
 27a:	006a                	0x6a
 27c:	0000                	unimp
 27e:	0000                	unimp
 280:	0000                	unimp
 282:	2400                	fld	fs0,8(s0)
 284:	25000003          	lb	zero,592(zero) # 250 <_min_stack-0x1db0>
 288:	06000003          	lb	zero,96(zero) # 60 <_min_stack-0x1fa0>
 28c:	7a00                	flw	fs0,48(a2)
 28e:	0800                	addi	s0,sp,16
 290:	1aff                	0x1aff
 292:	009f 0000 0000      	0x9f
 298:	0000                	unimp
 29a:	2400                	fld	fs0,8(s0)
 29c:	26000003          	lb	zero,608(zero) # 260 <_min_stack-0x1da0>
 2a0:	02000003          	lb	zero,32(zero) # 20 <_min_stack-0x1fe0>
 2a4:	3000                	fld	fs0,32(s0)
 2a6:	009f 0000 0000      	0x9f
 2ac:	0000                	unimp
 2ae:	4600                	lw	s0,8(a2)
 2b0:	0002                	0x2
 2b2:	5c00                	lw	s0,56(s0)
 2b4:	0002                	0x2
 2b6:	0100                	addi	s0,sp,128
 2b8:	5a00                	lw	s0,48(a2)
 2ba:	025c                	addi	a5,sp,260
 2bc:	0000                	unimp
 2be:	0278                	addi	a4,sp,268
 2c0:	0000                	unimp
 2c2:	0001                	nop
 2c4:	785f 0002 7a00      	0x7a000002785f
 2ca:	0002                	0x2
 2cc:	0100                	addi	s0,sp,128
 2ce:	5a00                	lw	s0,48(a2)
 2d0:	027a                	slli	tp,tp,0x1e
 2d2:	0000                	unimp
 2d4:	027e                	slli	tp,tp,0x1f
 2d6:	0000                	unimp
 2d8:	0001                	nop
 2da:	005f 0000 0000      	0x5f
 2e0:	0000                	unimp
 2e2:	4600                	lw	s0,8(a2)
 2e4:	0002                	0x2
 2e6:	5e00                	lw	s0,56(a2)
 2e8:	0002                	0x2
 2ea:	0100                	addi	s0,sp,128
 2ec:	5b00                	lw	s0,48(a4)
 2ee:	025e                	slli	tp,tp,0x17
 2f0:	0000                	unimp
 2f2:	027e                	slli	tp,tp,0x1f
 2f4:	0000                	unimp
 2f6:	0001                	nop
 2f8:	0000005b          	p.mac	zero,zero,zero,zero
 2fc:	0000                	unimp
 2fe:	0000                	unimp
 300:	5400                	lw	s0,40(s0)
 302:	0002                	0x2
 304:	5e00                	lw	s0,56(a2)
 306:	0002                	0x2
 308:	0200                	addi	s0,sp,256
 30a:	3000                	fld	fs0,32(s0)
 30c:	5e9f 0002 6600      	0x660000025e9f
 312:	0002                	0x2
 314:	0200                	addi	s0,sp,256
 316:	3100                	fld	fs0,32(a0)
 318:	669f 0002 6c00      	0x6c000002669f
 31e:	0002                	0x2
 320:	0800                	addi	s0,sp,16
 322:	7f00                	flw	fs0,56(a4)
 324:	7a00                	flw	fs0,48(a2)
 326:	1c00                	addi	s0,sp,560
 328:	6c9f3f23          	0x6c9f3f23
 32c:	0002                	0x2
 32e:	7400                	flw	fs0,40(s0)
 330:	0002                	0x2
 332:	0800                	addi	s0,sp,16
 334:	7f00                	flw	fs0,56(a4)
 336:	7a00                	flw	fs0,48(a2)
 338:	1c00                	addi	s0,sp,560
 33a:	749f4023          	0x749f4023
 33e:	0002                	0x2
 340:	7800                	flw	fs0,48(s0)
 342:	0002                	0x2
 344:	0800                	addi	s0,sp,16
 346:	7f00                	flw	fs0,56(a4)
 348:	7a00                	flw	fs0,48(a2)
 34a:	1c00                	addi	s0,sp,560
 34c:	7a9f3f23          	0x7a9f3f23
 350:	0002                	0x2
 352:	7e00                	flw	fs0,56(a2)
 354:	0002                	0x2
 356:	0200                	addi	s0,sp,256
 358:	3000                	fld	fs0,32(s0)
 35a:	009f 0000 0000      	0x9f
 360:	0000                	unimp
 362:	1800                	addi	s0,sp,48
 364:	0002                	0x2
 366:	2c00                	fld	fs0,24(s0)
 368:	0002                	0x2
 36a:	0100                	addi	s0,sp,128
 36c:	5b00                	lw	s0,48(a4)
 36e:	022c                	addi	a1,sp,264
 370:	0000                	unimp
 372:	0246                	slli	tp,tp,0x11
 374:	0000                	unimp
 376:	0004                	addi	s1,sp,0
 378:	9f5b01f3          	0x9f5b01f3
	...
 384:	0010                	addi	a2,sp,0
 386:	0000                	unimp
 388:	0024                	addi	s1,sp,8
 38a:	0000                	unimp
 38c:	0001                	nop
 38e:	245a                	fld	fs0,400(sp)
 390:	0000                	unimp
 392:	4a00                	lw	s0,16(a2)
 394:	0000                	unimp
 396:	0100                	addi	s0,sp,128
 398:	5900                	lw	s0,48(a0)
 39a:	004a                	0x4a
 39c:	0000                	unimp
 39e:	0052                	0x52
 3a0:	0000                	unimp
 3a2:	7f790003          	lb	zero,2039(s2) # 17f7 <_min_stack-0x809>
 3a6:	529f 0000 5a00      	0x5a000000529f
 3ac:	0000                	unimp
 3ae:	0100                	addi	s0,sp,128
 3b0:	5900                	lw	s0,48(a0)
 3b2:	0074                	addi	a3,sp,12
 3b4:	0000                	unimp
 3b6:	00a2                	slli	ra,ra,0x8
 3b8:	0000                	unimp
 3ba:	0001                	nop
 3bc:	a259                	j	542 <_min_stack-0x1abe>
 3be:	0000                	unimp
 3c0:	aa00                	fsd	fs0,16(a2)
 3c2:	0000                	unimp
 3c4:	0300                	addi	s0,sp,384
 3c6:	7900                	flw	fs0,48(a0)
 3c8:	9f7f                	0x9f7f
 3ca:	00aa                	slli	ra,ra,0xa
 3cc:	0000                	unimp
 3ce:	00b8                	addi	a4,sp,72
 3d0:	0000                	unimp
 3d2:	0001                	nop
 3d4:	b859                	j	fffffc6a <pulp__FC+0xfffffc6b>
 3d6:	0000                	unimp
 3d8:	c000                	sw	s0,0(s0)
 3da:	0000                	unimp
 3dc:	0300                	addi	s0,sp,384
 3de:	7900                	flw	fs0,48(a0)
 3e0:	9f7f                	0x9f7f
 3e2:	00c0                	addi	s0,sp,68
 3e4:	0000                	unimp
 3e6:	00c6                	slli	ra,ra,0x11
 3e8:	0000                	unimp
 3ea:	0001                	nop
 3ec:	c659                	beqz	a2,47a <_min_stack-0x1b86>
 3ee:	0000                	unimp
 3f0:	ce00                	sw	s0,24(a2)
 3f2:	0000                	unimp
 3f4:	0300                	addi	s0,sp,384
 3f6:	7900                	flw	fs0,48(a0)
 3f8:	9f7f                	0x9f7f
 3fa:	00d4                	addi	a3,sp,68
 3fc:	0000                	unimp
 3fe:	00e2                	slli	ra,ra,0x18
 400:	0000                	unimp
 402:	0001                	nop
 404:	0059                	c.addi	zero,22
 406:	0000                	unimp
 408:	0000                	unimp
 40a:	0000                	unimp
 40c:	1000                	addi	s0,sp,32
 40e:	0000                	unimp
 410:	3c00                	fld	fs0,56(s0)
 412:	0000                	unimp
 414:	0100                	addi	s0,sp,128
 416:	5b00                	lw	s0,48(a4)
 418:	003c                	addi	a5,sp,8
 41a:	0000                	unimp
 41c:	0048                	addi	a0,sp,4
 41e:	0000                	unimp
 420:	0002                	0x2
 422:	9f30                	0x9f30
 424:	0054                	addi	a3,sp,4
 426:	0000                	unimp
 428:	005a                	0x5a
 42a:	0000                	unimp
 42c:	0001                	nop
 42e:	5a62                	lw	s4,56(sp)
 430:	0000                	unimp
 432:	5c00                	lw	s0,56(s0)
 434:	0000                	unimp
 436:	0100                	addi	s0,sp,128
 438:	5900                	lw	s0,48(a0)
 43a:	005c                	addi	a5,sp,4
 43c:	0000                	unimp
 43e:	0060                	addi	s0,sp,12
 440:	0000                	unimp
 442:	01790003          	lb	zero,23(s2)
 446:	609f 0000 6400      	0x64000000609f
 44c:	0000                	unimp
 44e:	0100                	addi	s0,sp,128
 450:	5900                	lw	s0,48(a0)
 452:	0074                	addi	a3,sp,12
 454:	0000                	unimp
 456:	0078                	addi	a4,sp,12
 458:	0000                	unimp
 45a:	0001                	nop
 45c:	0000785b          	p.mac.zh.zh	a6,zero,zero,zero
 460:	9000                	0x9000
 462:	0000                	unimp
 464:	0100                	addi	s0,sp,128
 466:	5800                	lw	s0,48(s0)
 468:	0090                	addi	a2,sp,64
 46a:	0000                	unimp
 46c:	0092                	slli	ra,ra,0x4
 46e:	0000                	unimp
 470:	0001                	nop
 472:	9262                	add	tp,tp,s8
 474:	0000                	unimp
 476:	9600                	0x9600
 478:	0000                	unimp
 47a:	0300                	addi	s0,sp,384
 47c:	8200                	0x8200
 47e:	9f01                	0x9f01
 480:	0096                	slli	ra,ra,0x5
 482:	0000                	unimp
 484:	009e                	slli	ra,ra,0x7
 486:	0000                	unimp
 488:	0001                	nop
 48a:	9e62                	add	t3,t3,s8
 48c:	0000                	unimp
 48e:	a000                	fsd	fs0,0(s0)
 490:	0000                	unimp
 492:	0200                	addi	s0,sp,256
 494:	3000                	fld	fs0,32(s0)
 496:	ae9f 0000 b200      	0xb2000000ae9f
 49c:	0000                	unimp
 49e:	0100                	addi	s0,sp,128
 4a0:	5b00                	lw	s0,48(a4)
 4a2:	00b2                	slli	ra,ra,0xc
 4a4:	0000                	unimp
 4a6:	00b6                	slli	ra,ra,0xd
 4a8:	0000                	unimp
 4aa:	0001                	nop
 4ac:	c462                	sw	s8,8(sp)
 4ae:	0000                	unimp
 4b0:	ce00                	sw	s0,24(a2)
 4b2:	0000                	unimp
 4b4:	0200                	addi	s0,sp,256
 4b6:	3000                	fld	fs0,32(s0)
 4b8:	de9f 0000 e200      	0xe2000000de9f
 4be:	0000                	unimp
 4c0:	0100                	addi	s0,sp,128
 4c2:	5b00                	lw	s0,48(a4)
	...
 4cc:	0010                	addi	a2,sp,0
 4ce:	0000                	unimp
 4d0:	0048                	addi	a0,sp,4
 4d2:	0000                	unimp
 4d4:	0001                	nop
 4d6:	485c                	lw	a5,20(s0)
 4d8:	0000                	unimp
 4da:	7400                	flw	fs0,40(s0)
 4dc:	0000                	unimp
 4de:	0400                	addi	s0,sp,512
 4e0:	f300                	fsw	fs0,32(a4)
 4e2:	5c01                	li	s8,-32
 4e4:	749f 0000 8800      	0x88000000749f
 4ea:	0000                	unimp
 4ec:	0100                	addi	s0,sp,128
 4ee:	5c00                	lw	s0,56(s0)
 4f0:	0088                	addi	a0,sp,64
 4f2:	0000                	unimp
 4f4:	00ae                	slli	ra,ra,0xb
 4f6:	0000                	unimp
 4f8:	0004                	addi	s1,sp,0
 4fa:	9f5c01f3          	0x9f5c01f3
 4fe:	00ae                	slli	ra,ra,0xb
 500:	0000                	unimp
 502:	00b2                	slli	ra,ra,0xc
 504:	0000                	unimp
 506:	0001                	nop
 508:	b25c                	fsd	fa5,160(a2)
 50a:	0000                	unimp
 50c:	c400                	sw	s0,8(s0)
 50e:	0000                	unimp
 510:	0400                	addi	s0,sp,512
 512:	f300                	fsw	fs0,32(a4)
 514:	5c01                	li	s8,-32
 516:	c49f 0000 c700      	0xc7000000c49f
 51c:	0000                	unimp
 51e:	0100                	addi	s0,sp,128
 520:	5c00                	lw	s0,56(s0)
 522:	000000c7          	fmsub.s	ft1,ft0,ft0,ft0,rne
 526:	00de                	slli	ra,ra,0x17
 528:	0000                	unimp
 52a:	0004                	addi	s1,sp,0
 52c:	9f5c01f3          	0x9f5c01f3
 530:	00de                	slli	ra,ra,0x17
 532:	0000                	unimp
 534:	00e2                	slli	ra,ra,0x18
 536:	0000                	unimp
 538:	0001                	nop
 53a:	005c                	addi	a5,sp,4
 53c:	0000                	unimp
 53e:	0000                	unimp
 540:	0000                	unimp
 542:	1000                	addi	s0,sp,32
 544:	0000                	unimp
 546:	4800                	lw	s0,16(s0)
 548:	0000                	unimp
 54a:	0200                	addi	s0,sp,256
 54c:	3000                	fld	fs0,32(s0)
 54e:	489f 0000 5a00      	0x5a000000489f
 554:	0000                	unimp
 556:	0100                	addi	s0,sp,128
 558:	5800                	lw	s0,48(s0)
 55a:	0074                	addi	a3,sp,12
 55c:	0000                	unimp
 55e:	0090                	addi	a2,sp,64
 560:	0000                	unimp
 562:	0002                	0x2
 564:	9f30                	0x9f30
 566:	009e                	slli	ra,ra,0x7
 568:	0000                	unimp
 56a:	00ae                	slli	ra,ra,0xb
 56c:	0000                	unimp
 56e:	0001                	nop
 570:	ae58                	fsd	fa4,152(a2)
 572:	0000                	unimp
 574:	b600                	fsd	fs0,40(a2)
 576:	0000                	unimp
 578:	0200                	addi	s0,sp,256
 57a:	3000                	fld	fs0,32(s0)
 57c:	b69f 0000 c400      	0xc4000000b69f
 582:	0000                	unimp
 584:	0100                	addi	s0,sp,128
 586:	5800                	lw	s0,48(s0)
 588:	00c4                	addi	s1,sp,68
 58a:	0000                	unimp
 58c:	00ce                	slli	ra,ra,0x13
 58e:	0000                	unimp
 590:	0002                	0x2
 592:	9f30                	0x9f30
 594:	00ce                	slli	ra,ra,0x13
 596:	0000                	unimp
 598:	00d8                	addi	a4,sp,68
 59a:	0000                	unimp
 59c:	0001                	nop
 59e:	d858                	sw	a4,52(s0)
 5a0:	0000                	unimp
 5a2:	e200                	fsw	fs0,0(a2)
 5a4:	0000                	unimp
 5a6:	0200                	addi	s0,sp,256
 5a8:	3000                	fld	fs0,32(s0)
 5aa:	009f 0000 0000      	0x9f
 5b0:	0000                	unimp
 5b2:	1000                	addi	s0,sp,32
 5b4:	0000                	unimp
 5b6:	4800                	lw	s0,16(s0)
 5b8:	0000                	unimp
 5ba:	0300                	addi	s0,sp,384
 5bc:	0800                	addi	s0,sp,16
 5be:	9f20                	0x9f20
 5c0:	0074                	addi	a3,sp,12
 5c2:	0000                	unimp
 5c4:	0086                	slli	ra,ra,0x1
 5c6:	0000                	unimp
 5c8:	20080003          	lb	zero,512(a6)
 5cc:	869f 0000 ae00      	0xae000000869f
 5d2:	0000                	unimp
 5d4:	0100                	addi	s0,sp,128
 5d6:	6300                	flw	fs0,0(a4)
 5d8:	00ae                	slli	ra,ra,0xb
 5da:	0000                	unimp
 5dc:	00b2                	slli	ra,ra,0xc
 5de:	0000                	unimp
 5e0:	20080003          	lb	zero,512(a6)
 5e4:	c49f 0000 d800      	0xd8000000c49f
 5ea:	0000                	unimp
 5ec:	0300                	addi	s0,sp,384
 5ee:	0800                	addi	s0,sp,16
 5f0:	9f20                	0x9f20
 5f2:	00d8                	addi	a4,sp,68
 5f4:	0000                	unimp
 5f6:	00de                	slli	ra,ra,0x17
 5f8:	0000                	unimp
 5fa:	0001                	nop
 5fc:	0000de63          	bgez	ra,618 <_min_stack-0x19e8>
 600:	e200                	fsw	fs0,0(a2)
 602:	0000                	unimp
 604:	0300                	addi	s0,sp,384
 606:	0800                	addi	s0,sp,16
 608:	9f20                	0x9f20
	...
 612:	0028                	addi	a0,sp,8
 614:	0000                	unimp
 616:	002e                	0x2e
 618:	0000                	unimp
 61a:	0002                	0x2
 61c:	9f30                	0x9f30
 61e:	002e                	0x2e
 620:	0000                	unimp
 622:	0040                	addi	s0,sp,4
 624:	0000                	unimp
 626:	0001                	nop
 628:	7458                	flw	fa4,44(s0)
 62a:	0000                	unimp
 62c:	7800                	flw	fs0,48(s0)
 62e:	0000                	unimp
 630:	0100                	addi	s0,sp,128
 632:	5800                	lw	s0,48(s0)
 634:	00de                	slli	ra,ra,0x17
 636:	0000                	unimp
 638:	00e2                	slli	ra,ra,0x18
 63a:	0000                	unimp
 63c:	0002                	0x2
 63e:	9f30                	0x9f30
	...
 648:	0028                	addi	a0,sp,8
 64a:	0000                	unimp
 64c:	002e                	0x2e
 64e:	0000                	unimp
 650:	0001                	nop
 652:	2e59                	jal	9e8 <_min_stack-0x1618>
 654:	0000                	unimp
 656:	3000                	fld	fs0,32(s0)
 658:	0000                	unimp
 65a:	0100                	addi	s0,sp,128
 65c:	5f00                	lw	s0,56(a4)
 65e:	0030                	addi	a2,sp,8
 660:	0000                	unimp
 662:	0036                	0x36
 664:	0000                	unimp
 666:	7f7f0003          	lb	zero,2039(t5)
 66a:	369f 0000 4800      	0x48000000369f
 670:	0000                	unimp
 672:	0100                	addi	s0,sp,128
 674:	5f00                	lw	s0,56(a4)
 676:	0074                	addi	a3,sp,12
 678:	0000                	unimp
 67a:	0078                	addi	a4,sp,12
 67c:	0000                	unimp
 67e:	0001                	nop
 680:	c45f 0000 c700      	0xc7000000c45f
 686:	0000                	unimp
 688:	0100                	addi	s0,sp,128
 68a:	5f00                	lw	s0,56(a4)
 68c:	00de                	slli	ra,ra,0x17
 68e:	0000                	unimp
 690:	00e2                	slli	ra,ra,0x18
 692:	0000                	unimp
 694:	0001                	nop
 696:	0059                	c.addi	zero,22
 698:	0000                	unimp
 69a:	0000                	unimp
 69c:	0000                	unimp
 69e:	4800                	lw	s0,16(s0)
 6a0:	0000                	unimp
 6a2:	4b00                	lw	s0,16(a4)
 6a4:	0000                	unimp
 6a6:	0600                	addi	s0,sp,768
 6a8:	7a00                	flw	fs0,48(a2)
 6aa:	0800                	addi	s0,sp,16
 6ac:	1aff                	0x1aff
 6ae:	a09f 0000 a300      	0xa3000000a09f
 6b4:	0000                	unimp
 6b6:	0600                	addi	s0,sp,768
 6b8:	7a00                	flw	fs0,48(a2)
 6ba:	0800                	addi	s0,sp,16
 6bc:	1aff                	0x1aff
 6be:	b69f 0000 b900      	0xb9000000b69f
 6c4:	0000                	unimp
 6c6:	0600                	addi	s0,sp,768
 6c8:	7a00                	flw	fs0,48(a2)
 6ca:	0800                	addi	s0,sp,16
 6cc:	1aff                	0x1aff
 6ce:	009f 0000 0000      	0x9f
 6d4:	0000                	unimp
 6d6:	4800                	lw	s0,16(s0)
 6d8:	0000                	unimp
 6da:	4c00                	lw	s0,24(s0)
 6dc:	0000                	unimp
 6de:	0200                	addi	s0,sp,256
 6e0:	3000                	fld	fs0,32(s0)
 6e2:	a09f 0000 a400      	0xa4000000a09f
 6e8:	0000                	unimp
 6ea:	0200                	addi	s0,sp,256
 6ec:	3000                	fld	fs0,32(s0)
 6ee:	b69f 0000 ba00      	0xba000000b69f
 6f4:	0000                	unimp
 6f6:	0200                	addi	s0,sp,256
 6f8:	3000                	fld	fs0,32(s0)
 6fa:	009f 0000 0000      	0x9f
 700:	0000                	unimp
 702:	5a00                	lw	s0,48(a2)
 704:	0000                	unimp
 706:	6000                	flw	fs0,0(s0)
 708:	0000                	unimp
 70a:	0100                	addi	s0,sp,128
 70c:	6300                	flw	fs0,0(a4)
	...
 716:	005a                	0x5a
 718:	0000                	unimp
 71a:	0060                	addi	s0,sp,12
 71c:	0000                	unimp
 71e:	0002                	0x2
 720:	9f30                	0x9f30
	...
 72a:	0090                	addi	a2,sp,64
 72c:	0000                	unimp
 72e:	0096                	slli	ra,ra,0x5
 730:	0000                	unimp
 732:	0001                	nop
 734:	00000063          	beqz	zero,734 <_min_stack-0x18cc>
 738:	0000                	unimp
 73a:	0000                	unimp
 73c:	9000                	0x9000
 73e:	0000                	unimp
 740:	9600                	0x9600
 742:	0000                	unimp
 744:	0200                	addi	s0,sp,256
 746:	3000                	fld	fs0,32(s0)
 748:	009f 0000 0000      	0x9f
 74e:	0000                	unimp
 750:	e200                	fsw	fs0,0(a2)
 752:	0000                	unimp
 754:	0a00                	addi	s0,sp,272
 756:	0001                	nop
 758:	0100                	addi	s0,sp,128
 75a:	5a00                	lw	s0,48(a2)
 75c:	010a                	slli	sp,sp,0x2
 75e:	0000                	unimp
 760:	0110                	addi	a2,sp,128
 762:	0000                	unimp
 764:	0001                	nop
 766:	1060                	addi	s0,sp,44
 768:	0001                	nop
 76a:	4000                	lw	s0,0(s0)
 76c:	0001                	nop
 76e:	0400                	addi	s0,sp,512
 770:	f300                	fsw	fs0,32(a4)
 772:	5a01                	li	s4,-32
 774:	409f 0001 4e00      	0x4e000001409f
 77a:	0001                	nop
 77c:	0100                	addi	s0,sp,128
 77e:	5a00                	lw	s0,48(a2)
 780:	014e                	slli	sp,sp,0x13
 782:	0000                	unimp
 784:	01e4                	addi	s1,sp,204
 786:	0000                	unimp
 788:	0004                	addi	s1,sp,0
 78a:	9f5a01f3          	0x9f5a01f3
 78e:	01e4                	addi	s1,sp,204
 790:	0000                	unimp
 792:	01e6                	slli	gp,gp,0x19
 794:	0000                	unimp
 796:	0001                	nop
 798:	e65a                	fsw	fs6,12(sp)
 79a:	0001                	nop
 79c:	fe00                	fsw	fs0,56(a2)
 79e:	0001                	nop
 7a0:	0400                	addi	s0,sp,512
 7a2:	f300                	fsw	fs0,32(a4)
 7a4:	5a01                	li	s4,-32
 7a6:	fe9f 0001 0a00      	0xa000001fe9f
 7ac:	0002                	0x2
 7ae:	0100                	addi	s0,sp,128
 7b0:	5a00                	lw	s0,48(a2)
 7b2:	020a                	slli	tp,tp,0x2
 7b4:	0000                	unimp
 7b6:	020e                	slli	tp,tp,0x3
 7b8:	0000                	unimp
 7ba:	0004                	addi	s1,sp,0
 7bc:	9f5a01f3          	0x9f5a01f3
 7c0:	020e                	slli	tp,tp,0x3
 7c2:	0000                	unimp
 7c4:	0218                	addi	a4,sp,256
 7c6:	0000                	unimp
 7c8:	0001                	nop
 7ca:	005a                	0x5a
 7cc:	0000                	unimp
 7ce:	0000                	unimp
 7d0:	0000                	unimp
 7d2:	e200                	fsw	fs0,0(a2)
 7d4:	0000                	unimp
 7d6:	1000                	addi	s0,sp,32
 7d8:	0001                	nop
 7da:	0100                	addi	s0,sp,128
 7dc:	5b00                	lw	s0,48(a4)
 7de:	0110                	addi	a2,sp,128
 7e0:	0000                	unimp
 7e2:	0140                	addi	s0,sp,132
 7e4:	0000                	unimp
 7e6:	0004                	addi	s1,sp,0
 7e8:	9f5b01f3          	0x9f5b01f3
 7ec:	0140                	addi	s0,sp,132
 7ee:	0000                	unimp
 7f0:	015e                	slli	sp,sp,0x17
 7f2:	0000                	unimp
 7f4:	0001                	nop
 7f6:	00015e5b          	p.mac.zl.zh	t3,sp,zero,zero
 7fa:	e400                	fsw	fs0,8(s0)
 7fc:	0001                	nop
 7fe:	0400                	addi	s0,sp,512
 800:	f300                	fsw	fs0,32(a4)
 802:	5b01                	li	s6,-32
 804:	e49f 0001 ee00      	0xee000001e49f
 80a:	0001                	nop
 80c:	0100                	addi	s0,sp,128
 80e:	5b00                	lw	s0,48(a4)
 810:	01ee                	slli	gp,gp,0x1b
 812:	0000                	unimp
 814:	01fe                	slli	gp,gp,0x1f
 816:	0000                	unimp
 818:	0004                	addi	s1,sp,0
 81a:	9f5b01f3          	0x9f5b01f3
 81e:	01fe                	slli	gp,gp,0x1f
 820:	0000                	unimp
 822:	020a                	slli	tp,tp,0x2
 824:	0000                	unimp
 826:	0001                	nop
 828:	00020a5b          	p.mac	s4,tp,zero,zero
 82c:	0e00                	addi	s0,sp,784
 82e:	0002                	0x2
 830:	0400                	addi	s0,sp,512
 832:	f300                	fsw	fs0,32(a4)
 834:	5b01                	li	s6,-32
 836:	0e9f 0002 1800      	0x180000020e9f
 83c:	0002                	0x2
 83e:	0100                	addi	s0,sp,128
 840:	5b00                	lw	s0,48(a4)
	...
 84a:	00e2                	slli	ra,ra,0x18
 84c:	0000                	unimp
 84e:	00f6                	slli	ra,ra,0x1d
 850:	0000                	unimp
 852:	0001                	nop
 854:	f65c                	fsw	fa5,44(a2)
 856:	0000                	unimp
 858:	0200                	addi	s0,sp,256
 85a:	0001                	nop
 85c:	0100                	addi	s0,sp,128
 85e:	5800                	lw	s0,48(s0)
 860:	0102                	slli	sp,sp,0x0
 862:	0000                	unimp
 864:	0140                	addi	s0,sp,132
 866:	0000                	unimp
 868:	0004                	addi	s1,sp,0
 86a:	9f5c01f3          	0x9f5c01f3
 86e:	0140                	addi	s0,sp,132
 870:	0000                	unimp
 872:	014a                	slli	sp,sp,0x12
 874:	0000                	unimp
 876:	0001                	nop
 878:	4a58                	lw	a4,20(a2)
 87a:	0001                	nop
 87c:	e400                	fsw	fs0,8(s0)
 87e:	0001                	nop
 880:	0400                	addi	s0,sp,512
 882:	f300                	fsw	fs0,32(a4)
 884:	5c01                	li	s8,-32
 886:	e49f 0001 ec00      	0xec000001e49f
 88c:	0001                	nop
 88e:	0100                	addi	s0,sp,128
 890:	5c00                	lw	s0,56(s0)
 892:	01ec                	addi	a1,sp,204
 894:	0000                	unimp
 896:	01fe                	slli	gp,gp,0x1f
 898:	0000                	unimp
 89a:	0004                	addi	s1,sp,0
 89c:	9f5c01f3          	0x9f5c01f3
 8a0:	01fe                	slli	gp,gp,0x1f
 8a2:	0000                	unimp
 8a4:	0208                	addi	a0,sp,256
 8a6:	0000                	unimp
 8a8:	0001                	nop
 8aa:	0858                	addi	a4,sp,20
 8ac:	0002                	0x2
 8ae:	0e00                	addi	s0,sp,784
 8b0:	0002                	0x2
 8b2:	0400                	addi	s0,sp,512
 8b4:	f300                	fsw	fs0,32(a4)
 8b6:	5c01                	li	s8,-32
 8b8:	0e9f 0002 1800      	0x180000020e9f
 8be:	0002                	0x2
 8c0:	0100                	addi	s0,sp,128
 8c2:	5800                	lw	s0,48(s0)
	...
 8cc:	00e2                	slli	ra,ra,0x18
 8ce:	0000                	unimp
 8d0:	00000133          	add	sp,zero,zero
 8d4:	0001                	nop
 8d6:	405d                	0x405d
 8d8:	0001                	nop
 8da:	c900                	sw	s0,16(a0)
 8dc:	0001                	nop
 8de:	0100                	addi	s0,sp,128
 8e0:	5d00                	lw	s0,56(a0)
 8e2:	01c9                	addi	gp,gp,18
 8e4:	0000                	unimp
 8e6:	01d2                	slli	gp,gp,0x14
 8e8:	0000                	unimp
 8ea:	0004                	addi	s1,sp,0
 8ec:	9f5d01f3          	0x9f5d01f3
 8f0:	01d2                	slli	gp,gp,0x14
 8f2:	0000                	unimp
 8f4:	000001f3          	0x1f3
 8f8:	0001                	nop
 8fa:	f35d                	bnez	a4,8a0 <_min_stack-0x1760>
 8fc:	0001                	nop
 8fe:	fe00                	fsw	fs0,56(a2)
 900:	0001                	nop
 902:	0400                	addi	s0,sp,512
 904:	f300                	fsw	fs0,32(a4)
 906:	5d01                	li	s10,-32
 908:	fe9f 0001 1800      	0x18000001fe9f
 90e:	0002                	0x2
 910:	0100                	addi	s0,sp,128
 912:	5d00                	lw	s0,56(a0)
	...
 91c:	00e2                	slli	ra,ra,0x18
 91e:	0000                	unimp
 920:	012e                	slli	sp,sp,0xb
 922:	0000                	unimp
 924:	0001                	nop
 926:	2e5e                	fld	ft8,464(sp)
 928:	0001                	nop
 92a:	4000                	lw	s0,0(s0)
 92c:	0001                	nop
 92e:	0400                	addi	s0,sp,512
 930:	f300                	fsw	fs0,32(a4)
 932:	5e01                	li	t3,-32
 934:	409f 0001 c900      	0xc9000001409f
 93a:	0001                	nop
 93c:	0100                	addi	s0,sp,128
 93e:	5e00                	lw	s0,56(a2)
 940:	01c9                	addi	gp,gp,18
 942:	0000                	unimp
 944:	01d6                	slli	gp,gp,0x15
 946:	0000                	unimp
 948:	0004                	addi	s1,sp,0
 94a:	9f5e01f3          	0x9f5e01f3
 94e:	01d6                	slli	gp,gp,0x15
 950:	0000                	unimp
 952:	000001f3          	0x1f3
 956:	0001                	nop
 958:	f35e                	fsw	fs7,164(sp)
 95a:	0001                	nop
 95c:	fe00                	fsw	fs0,56(a2)
 95e:	0001                	nop
 960:	0400                	addi	s0,sp,512
 962:	f300                	fsw	fs0,32(a4)
 964:	5e01                	li	t3,-32
 966:	fe9f 0001 1800      	0x18000001fe9f
 96c:	0002                	0x2
 96e:	0100                	addi	s0,sp,128
 970:	5e00                	lw	s0,56(a2)
	...
 97a:	00e2                	slli	ra,ra,0x18
 97c:	0000                	unimp
 97e:	0110                	addi	a2,sp,128
 980:	0000                	unimp
 982:	0001                	nop
 984:	105f 0001 4000      	0x40000001105f
 98a:	0001                	nop
 98c:	0400                	addi	s0,sp,512
 98e:	f300                	fsw	fs0,32(a4)
 990:	5f01                	li	t5,-32
 992:	409f 0001 5e00      	0x5e000001409f
 998:	0001                	nop
 99a:	0100                	addi	s0,sp,128
 99c:	5f00                	lw	s0,56(a4)
 99e:	015e                	slli	sp,sp,0x17
 9a0:	0000                	unimp
 9a2:	01e4                	addi	s1,sp,204
 9a4:	0000                	unimp
 9a6:	0004                	addi	s1,sp,0
 9a8:	9f5f01f3          	0x9f5f01f3
 9ac:	01e4                	addi	s1,sp,204
 9ae:	0000                	unimp
 9b0:	01ea                	slli	gp,gp,0x1a
 9b2:	0000                	unimp
 9b4:	0001                	nop
 9b6:	ea5f 0001 fe00      	0xfe000001ea5f
 9bc:	0001                	nop
 9be:	0400                	addi	s0,sp,512
 9c0:	f300                	fsw	fs0,32(a4)
 9c2:	5f01                	li	t5,-32
 9c4:	fe9f 0001 0a00      	0xa000001fe9f
 9ca:	0002                	0x2
 9cc:	0100                	addi	s0,sp,128
 9ce:	5f00                	lw	s0,56(a4)
 9d0:	020a                	slli	tp,tp,0x2
 9d2:	0000                	unimp
 9d4:	020e                	slli	tp,tp,0x3
 9d6:	0000                	unimp
 9d8:	0004                	addi	s1,sp,0
 9da:	9f5f01f3          	0x9f5f01f3
 9de:	020e                	slli	tp,tp,0x3
 9e0:	0000                	unimp
 9e2:	0218                	addi	a4,sp,256
 9e4:	0000                	unimp
 9e6:	0001                	nop
 9e8:	005f 0000 0000      	0x5f
 9ee:	0000                	unimp
 9f0:	fa00                	fsw	fs0,48(a2)
 9f2:	0000                	unimp
 9f4:	0a00                	addi	s0,sp,272
 9f6:	0001                	nop
 9f8:	0300                	addi	s0,sp,384
 9fa:	9100                	0x9100
 9fc:	010a9f6f          	jal	t5,a9a0c <tohost+0x89a04>
 a00:	0000                	unimp
 a02:	0116                	slli	sp,sp,0x5
 a04:	0000                	unimp
 a06:	0001                	nop
 a08:	165a                	slli	a2,a2,0x36
 a0a:	0001                	nop
 a0c:	2000                	fld	fs0,0(s0)
 a0e:	0001                	nop
 a10:	0300                	addi	s0,sp,384
 a12:	7a00                	flw	fs0,48(a2)
 a14:	9f01                	0x9f01
 a16:	0120                	addi	s0,sp,136
 a18:	0000                	unimp
 a1a:	00000133          	add	sp,zero,zero
 a1e:	0001                	nop
 a20:	405a                	0x405a
 a22:	0001                	nop
 a24:	5200                	lw	s0,32(a2)
 a26:	0001                	nop
 a28:	0300                	addi	s0,sp,384
 a2a:	9100                	0x9100
 a2c:	01529f6f          	jal	t5,2a240 <tohost+0xa238>
 a30:	0000                	unimp
 a32:	01de                	slli	gp,gp,0x17
 a34:	0000                	unimp
 a36:	0001                	nop
 a38:	de59                	beqz	a2,9d6 <_min_stack-0x162a>
 a3a:	0001                	nop
 a3c:	e400                	fsw	fs0,8(s0)
 a3e:	0001                	nop
 a40:	0100                	addi	s0,sp,128
 a42:	5a00                	lw	s0,48(a2)
 a44:	0202                	slli	tp,tp,0x0
 a46:	0000                	unimp
 a48:	020a                	slli	tp,tp,0x2
 a4a:	0000                	unimp
 a4c:	6f910003          	lb	zero,1785(sp)
 a50:	0a9f 0002 0e00      	0xe0000020a9f
 a56:	0002                	0x2
 a58:	0100                	addi	s0,sp,128
 a5a:	5900                	lw	s0,48(a0)
 a5c:	0212                	slli	tp,tp,0x4
 a5e:	0000                	unimp
 a60:	0218                	addi	a4,sp,256
 a62:	0000                	unimp
 a64:	6f910003          	lb	zero,1785(sp)
 a68:	009f 0000 0000      	0x9f
 a6e:	0000                	unimp
 a70:	e200                	fsw	fs0,0(a2)
 a72:	0000                	unimp
 a74:	2c00                	fld	fs0,24(s0)
 a76:	0001                	nop
 a78:	0200                	addi	s0,sp,256
 a7a:	3000                	fld	fs0,32(s0)
 a7c:	409f 0001 4a00      	0x4a000001409f
 a82:	0001                	nop
 a84:	0200                	addi	s0,sp,256
 a86:	3000                	fld	fs0,32(s0)
 a88:	e49f 0001 0a00      	0xa000001e49f
 a8e:	0002                	0x2
 a90:	0200                	addi	s0,sp,256
 a92:	3000                	fld	fs0,32(s0)
 a94:	0e9f 0002 1800      	0x180000020e9f
 a9a:	0002                	0x2
 a9c:	0200                	addi	s0,sp,256
 a9e:	3100                	fld	fs0,32(a0)
 aa0:	009f 0000 0000      	0x9f
 aa6:	0000                	unimp
 aa8:	e200                	fsw	fs0,0(a2)
 aaa:	0000                	unimp
 aac:	2e00                	fld	fs0,24(a2)
 aae:	0001                	nop
 ab0:	0200                	addi	s0,sp,256
 ab2:	3000                	fld	fs0,32(s0)
 ab4:	2e9f 0001 3a00      	0x3a0000012e9f
 aba:	0001                	nop
 abc:	0100                	addi	s0,sp,128
 abe:	5800                	lw	s0,48(s0)
 ac0:	0140                	addi	s0,sp,132
 ac2:	0000                	unimp
 ac4:	01ca                	slli	gp,gp,0x12
 ac6:	0000                	unimp
 ac8:	0002                	0x2
 aca:	9f30                	0x9f30
 acc:	01ca                	slli	gp,gp,0x12
 ace:	0000                	unimp
 ad0:	01d6                	slli	gp,gp,0x15
 ad2:	0000                	unimp
 ad4:	0002                	0x2
 ad6:	9f31                	0x9f31
 ad8:	01d6                	slli	gp,gp,0x15
 ada:	0000                	unimp
 adc:	0218                	addi	a4,sp,256
 ade:	0000                	unimp
 ae0:	0002                	0x2
 ae2:	9f30                	0x9f30
	...
 aec:	00e2                	slli	ra,ra,0x18
 aee:	0000                	unimp
 af0:	010a                	slli	sp,sp,0x2
 af2:	0000                	unimp
 af4:	0001                	nop
 af6:	0a5a                	slli	s4,s4,0x16
 af8:	0001                	nop
 afa:	1a00                	addi	s0,sp,304
 afc:	0001                	nop
 afe:	0100                	addi	s0,sp,128
 b00:	6000                	flw	fs0,0(s0)
 b02:	0120                	addi	s0,sp,136
 b04:	0000                	unimp
 b06:	012e                	slli	sp,sp,0xb
 b08:	0000                	unimp
 b0a:	0001                	nop
 b0c:	4060                	lw	s0,68(s0)
 b0e:	0001                	nop
 b10:	4a00                	lw	s0,16(a2)
 b12:	0001                	nop
 b14:	0100                	addi	s0,sp,128
 b16:	5a00                	lw	s0,48(a2)
 b18:	015e                	slli	sp,sp,0x17
 b1a:	0000                	unimp
 b1c:	019e                	slli	gp,gp,0x7
 b1e:	0000                	unimp
 b20:	0001                	nop
 b22:	9e60                	0x9e60
 b24:	0001                	nop
 b26:	a200                	fsd	fs0,0(a2)
 b28:	0001                	nop
 b2a:	0300                	addi	s0,sp,384
 b2c:	8000                	0x8000
 b2e:	9f7a                	add	t5,t5,t5
 b30:	01b2                	slli	gp,gp,0xc
 b32:	0000                	unimp
 b34:	01c9                	addi	gp,gp,18
 b36:	0000                	unimp
 b38:	0001                	nop
 b3a:	d660                	sw	s0,108(a2)
 b3c:	0001                	nop
 b3e:	e400                	fsw	fs0,8(s0)
 b40:	0001                	nop
 b42:	0100                	addi	s0,sp,128
 b44:	6000                	flw	fs0,0(s0)
 b46:	01e4                	addi	s1,sp,204
 b48:	0000                	unimp
 b4a:	01e6                	slli	gp,gp,0x19
 b4c:	0000                	unimp
 b4e:	0001                	nop
 b50:	e65a                	fsw	fs6,12(sp)
 b52:	0001                	nop
 b54:	fe00                	fsw	fs0,56(a2)
 b56:	0001                	nop
 b58:	0400                	addi	s0,sp,512
 b5a:	f300                	fsw	fs0,32(a4)
 b5c:	5a01                	li	s4,-32
 b5e:	fe9f 0001 0a00      	0xa000001fe9f
 b64:	0002                	0x2
 b66:	0100                	addi	s0,sp,128
 b68:	5a00                	lw	s0,48(a2)
 b6a:	020a                	slli	tp,tp,0x2
 b6c:	0000                	unimp
 b6e:	020e                	slli	tp,tp,0x3
 b70:	0000                	unimp
 b72:	0001                	nop
 b74:	0e60                	addi	s0,sp,796
 b76:	0002                	0x2
 b78:	1200                	addi	s0,sp,288
 b7a:	0002                	0x2
 b7c:	0100                	addi	s0,sp,128
 b7e:	5a00                	lw	s0,48(a2)
 b80:	0212                	slli	tp,tp,0x4
 b82:	0000                	unimp
 b84:	0218                	addi	a4,sp,256
 b86:	0000                	unimp
 b88:	0001                	nop
 b8a:	0060                	addi	s0,sp,12
 b8c:	0000                	unimp
 b8e:	0000                	unimp
 b90:	0000                	unimp
 b92:	1400                	addi	s0,sp,544
 b94:	0001                	nop
 b96:	2400                	fld	fs0,8(s0)
 b98:	0001                	nop
 b9a:	0100                	addi	s0,sp,128
 b9c:	5b00                	lw	s0,48(a4)
 b9e:	0124                	addi	s1,sp,136
 ba0:	0000                	unimp
 ba2:	012c                	addi	a1,sp,136
 ba4:	0000                	unimp
 ba6:	507b0003          	lb	zero,1287(s6)
 baa:	009f 0000 0000      	0x9f
 bb0:	0000                	unimp
 bb2:	5e00                	lw	s0,56(a2)
 bb4:	0001                	nop
 bb6:	6600                	flw	fs0,8(a2)
 bb8:	0001                	nop
 bba:	0100                	addi	s0,sp,128
 bbc:	6000                	flw	fs0,0(s0)
	...
 bc6:	01b0                	addi	a2,sp,200
 bc8:	0000                	unimp
 bca:	01b2                	slli	gp,gp,0xc
 bcc:	0000                	unimp
 bce:	0001                	nop
 bd0:	005f 0000 0000      	0x5f
 bd6:	0000                	unimp
 bd8:	c000                	sw	s0,0(s0)
 bda:	0001                	nop
 bdc:	ca00                	sw	s0,16(a2)
 bde:	0001                	nop
 be0:	0300                	addi	s0,sp,384
 be2:	0800                	addi	s0,sp,16
 be4:	9f2d                	0x9f2d
	...
 bee:	01c0                	addi	s0,sp,196
 bf0:	0000                	unimp
 bf2:	01ca                	slli	gp,gp,0x12
 bf4:	0000                	unimp
 bf6:	0002                	0x2
 bf8:	9f30                	0x9f30
	...
 c02:	02ae                	slli	t0,t0,0xb
 c04:	0000                	unimp
 c06:	02c0                	addi	s0,sp,324
 c08:	0000                	unimp
 c0a:	0001                	nop
 c0c:	005a                	0x5a
 c0e:	0000                	unimp
 c10:	0000                	unimp
 c12:	0000                	unimp
 c14:	dc00                	sw	s0,56(s0)
 c16:	0006                	0x6
 c18:	e2e0                	fsw	fs0,68(a3)
 c1a:	0006                	0x6
 c1c:	01e0                	addi	s0,sp,204
 c1e:	5a00                	lw	s0,48(a2)
 c20:	06e2                	slli	a3,a3,0x18
 c22:	e000                	fsw	fs0,0(s0)
 c24:	073e                	slli	a4,a4,0xf
 c26:	e000                	fsw	fs0,0(s0)
 c28:	0004                	addi	s1,sp,0
 c2a:	9f5a01f3          	0x9f5a01f3
	...
 c36:	06dc                	addi	a5,sp,836
 c38:	e000                	fsw	fs0,0(s0)
 c3a:	06e0                	addi	s0,sp,844
 c3c:	e000                	fsw	fs0,0(s0)
 c3e:	0001                	nop
 c40:	0006e05b          	p.mac.zh.zl	zero,a3,zero,zero
 c44:	3ee0                	fld	fs0,248(a3)
 c46:	04e00007          	0x4e00007
 c4a:	f300                	fsw	fs0,32(a4)
 c4c:	5b01                	li	s6,-32
 c4e:	009f 0000 0000      	0x9f
 c54:	0000                	unimp
 c56:	f200                	fsw	fs0,32(a2)
 c58:	0006                	0x6
 c5a:	04e0                	addi	s0,sp,588
 c5c:	02e00007          	0x2e00007
 c60:	3000                	fld	fs0,32(s0)
 c62:	049f 0007 0ee0      	0xee00007049f
 c68:	06e00007          	0x6e00007
 c6c:	9e00                	0x9e00
 c6e:	0104                	addi	s1,sp,128
 c70:	0000                	unimp
 c72:	0ee0                	addi	s0,sp,860
 c74:	18e00007          	0x18e00007
 c78:	04e00007          	0x4e00007
 c7c:	0a00                	addi	s0,sp,272
 c7e:	1808                	addi	a0,sp,48
 c80:	189f 0007 3ee0      	0x3ee00007189f
 c86:	04e00007          	0x4e00007
 c8a:	0a00                	addi	s0,sp,272
 c8c:	0800                	addi	s0,sp,16
 c8e:	009f 0000 0000      	0x9f
 c94:	0000                	unimp
 c96:	f200                	fsw	fs0,32(a2)
 c98:	0006                	0x6
 c9a:	fae0                	fsw	fs0,116(a3)
 c9c:	0006                	0x6
 c9e:	06e0                	addi	s0,sp,844
 ca0:	9e00                	0x9e00
 ca2:	0004                	addi	s1,sp,0
 ca4:	0100                	addi	s0,sp,128
 ca6:	fae0                	fsw	fs0,116(a3)
 ca8:	0006                	0x6
 caa:	08e0                	addi	s0,sp,92
 cac:	01e00007          	0x1e00007
 cb0:	5f00                	lw	s0,56(a4)
	...
 cba:	0520                	addi	s0,sp,648
 cbc:	e000                	fsw	fs0,0(s0)
 cbe:	0564                	addi	s1,sp,652
 cc0:	e000                	fsw	fs0,0(s0)
 cc2:	000a                	0xa
 cc4:	089e                	slli	a7,a7,0x7
	...
 cce:	058a                	slli	a1,a1,0x2
 cd0:	e000                	fsw	fs0,0(s0)
 cd2:	05a6                	slli	a1,a1,0x9
 cd4:	e000                	fsw	fs0,0(s0)
 cd6:	000a                	0xa
 cd8:	089e                	slli	a7,a7,0x7
	...
 ce2:	05c6                	slli	a1,a1,0x11
 ce4:	e000                	fsw	fs0,0(s0)
 ce6:	05e2                	slli	a1,a1,0x18
 ce8:	e000                	fsw	fs0,0(s0)
 cea:	000a                	0xa
 cec:	089e                	slli	a7,a7,0x7
	...
 cf6:	05f2                	slli	a1,a1,0x1c
 cf8:	e000                	fsw	fs0,0(s0)
 cfa:	0660                	addi	s0,sp,780
 cfc:	e000                	fsw	fs0,0(s0)
 cfe:	000a                	0xa
 d00:	089e                	slli	a7,a7,0x7
	...
 d12:	0520                	addi	s0,sp,648
 d14:	e000                	fsw	fs0,0(s0)
 d16:	0564                	addi	s1,sp,652
 d18:	e000                	fsw	fs0,0(s0)
 d1a:	0002                	0x2
 d1c:	9f30                	0x9f30
 d1e:	058a                	slli	a1,a1,0x2
 d20:	e000                	fsw	fs0,0(s0)
 d22:	05b6                	slli	a1,a1,0xd
 d24:	e000                	fsw	fs0,0(s0)
 d26:	0002                	0x2
 d28:	9f30                	0x9f30
 d2a:	05c6                	slli	a1,a1,0x11
 d2c:	e000                	fsw	fs0,0(s0)
 d2e:	0660                	addi	s0,sp,780
 d30:	e000                	fsw	fs0,0(s0)
 d32:	0002                	0x2
 d34:	9f30                	0x9f30
	...
 d3e:	05a6                	slli	a1,a1,0x9
 d40:	e000                	fsw	fs0,0(s0)
 d42:	05b6                	slli	a1,a1,0xd
 d44:	e000                	fsw	fs0,0(s0)
 d46:	0002                	0x2
 d48:	9f30                	0x9f30
	...

Disassembly of section .debug_aranges:

00000000 <.debug_aranges>:
   0:	001c                	addi	a5,sp,0
   2:	0000                	unimp
   4:	0002                	0x2
   6:	0000                	unimp
   8:	0000                	unimp
   a:	0004                	addi	s1,sp,0
   c:	0000                	unimp
   e:	0000                	unimp
  10:	0084                	addi	s1,sp,64
  12:	e000                	fsw	fs0,0(s0)
  14:	049c                	addi	a5,sp,576
	...
  1e:	0000                	unimp
  20:	0024                	addi	s1,sp,8
  22:	0000                	unimp
  24:	0002                	0x2
  26:	000008e7          	jalr	a7,zero
  2a:	0004                	addi	s1,sp,0
  2c:	0000                	unimp
  2e:	0000                	unimp
  30:	0520                	addi	s0,sp,648
  32:	e000                	fsw	fs0,0(s0)
  34:	0140                	addi	s0,sp,132
  36:	0000                	unimp
  38:	06dc                	addi	a5,sp,836
  3a:	e000                	fsw	fs0,0(s0)
  3c:	0062                	0x62
	...
  46:	0000                	unimp
  48:	0024                	addi	s1,sp,8
  4a:	0000                	unimp
  4c:	0002                	0x2
  4e:	0d32                	slli	s10,s10,0xc
  50:	0000                	unimp
  52:	0004                	addi	s1,sp,0
  54:	0000                	unimp
  56:	0000                	unimp
  58:	0660                	addi	s0,sp,780
  5a:	e000                	fsw	fs0,0(s0)
  5c:	007c                	addi	a5,sp,12
  5e:	0000                	unimp
  60:	0000                	unimp
  62:	e000                	fsw	fs0,0(s0)
  64:	0084                	addi	s1,sp,64
	...

Disassembly of section .debug_ranges:

00000000 <.debug_ranges>:
   0:	0028                	addi	a0,sp,8
   2:	0000                	unimp
   4:	0042                	0x42
   6:	0000                	unimp
   8:	0046                	0x46
   a:	0000                	unimp
   c:	0048                	addi	a0,sp,4
   e:	0000                	unimp
  10:	0078                	addi	a4,sp,12
  12:	0000                	unimp
  14:	007c                	addi	a5,sp,12
  16:	0000                	unimp
  18:	0080                	addi	s0,sp,64
  1a:	0000                	unimp
  1c:	0086                	slli	ra,ra,0x1
  1e:	0000                	unimp
  20:	00cc                	addi	a1,sp,68
  22:	0000                	unimp
  24:	00d2                	slli	ra,ra,0x14
  26:	0000                	unimp
  28:	00de                	slli	ra,ra,0x17
  2a:	0000                	unimp
  2c:	00e2                	slli	ra,ra,0x18
	...
  36:	0000                	unimp
  38:	004a                	0x4a
  3a:	0000                	unimp
  3c:	004c                	addi	a1,sp,4
  3e:	0000                	unimp
  40:	00a2                	slli	ra,ra,0x8
  42:	0000                	unimp
  44:	00a4                	addi	s1,sp,72
  46:	0000                	unimp
  48:	00b8                	addi	a4,sp,72
  4a:	0000                	unimp
  4c:	00ba                	slli	ra,ra,0xe
  4e:	0000                	unimp
  50:	00c6                	slli	ra,ra,0x11
  52:	0000                	unimp
  54:	00c8                	addi	a0,sp,68
	...
  5e:	0000                	unimp
  60:	014a                	slli	sp,sp,0x12
  62:	0000                	unimp
  64:	014e                	slli	sp,sp,0x13
  66:	0000                	unimp
  68:	015a                	slli	sp,sp,0x16
  6a:	0000                	unimp
  6c:	0166                	slli	sp,sp,0x19
  6e:	0000                	unimp
  70:	0178                	addi	a4,sp,140
  72:	0000                	unimp
  74:	017c                	addi	a5,sp,140
  76:	0000                	unimp
  78:	0180                	addi	s0,sp,192
  7a:	0000                	unimp
  7c:	0184                	addi	s1,sp,192
  7e:	0000                	unimp
  80:	0188                	addi	a0,sp,192
  82:	0000                	unimp
  84:	018e                	slli	gp,gp,0x3
	...
  8e:	0000                	unimp
  90:	0166                	slli	sp,sp,0x19
  92:	0000                	unimp
  94:	0178                	addi	a4,sp,140
  96:	0000                	unimp
  98:	017c                	addi	a5,sp,140
  9a:	0000                	unimp
  9c:	0180                	addi	s0,sp,192
  9e:	0000                	unimp
  a0:	0184                	addi	s1,sp,192
  a2:	0000                	unimp
  a4:	0188                	addi	a0,sp,192
  a6:	0000                	unimp
  a8:	018e                	slli	gp,gp,0x3
  aa:	0000                	unimp
  ac:	0192                	slli	gp,gp,0x4
  ae:	0000                	unimp
  b0:	0196                	slli	gp,gp,0x5
  b2:	0000                	unimp
  b4:	01a2                	slli	gp,gp,0x8
  b6:	0000                	unimp
  b8:	01a8                	addi	a0,sp,200
  ba:	0000                	unimp
  bc:	01ac                	addi	a1,sp,200
  be:	0000                	unimp
  c0:	01b0                	addi	a2,sp,200
  c2:	0000                	unimp
  c4:	01b2                	slli	gp,gp,0xc
	...
  ce:	0000                	unimp
  d0:	02ea                	slli	t0,t0,0x1a
  d2:	0000                	unimp
  d4:	02ee                	slli	t0,t0,0x1b
  d6:	0000                	unimp
  d8:	02f4                	addi	a3,sp,332
  da:	0000                	unimp
  dc:	03da                	slli	t2,t2,0x16
  de:	0000                	unimp
  e0:	03f8                	addi	a4,sp,460
  e2:	0000                	unimp
  e4:	0458                	addi	a4,sp,516
	...
  ee:	0000                	unimp
  f0:	0310                	addi	a2,sp,384
  f2:	0000                	unimp
  f4:	031a                	slli	t1,t1,0x6
  f6:	0000                	unimp
  f8:	03f8                	addi	a4,sp,460
  fa:	0000                	unimp
  fc:	0408                	addi	a0,sp,512
  fe:	0000                	unimp
 100:	0454                	addi	a3,sp,516
 102:	0000                	unimp
 104:	0458                	addi	a4,sp,516
	...
 10e:	0000                	unimp
 110:	046c                	addi	a1,sp,524
 112:	0000                	unimp
 114:	0470                	addi	a2,sp,524
 116:	0000                	unimp
 118:	0474                	addi	a3,sp,524
 11a:	0000                	unimp
 11c:	0480                	addi	s0,sp,576
	...
 126:	0000                	unimp
 128:	0524                	addi	s1,sp,648
 12a:	e000                	fsw	fs0,0(s0)
 12c:	0528                	addi	a0,sp,648
 12e:	e000                	fsw	fs0,0(s0)
 130:	053a                	slli	a0,a0,0xe
 132:	e000                	fsw	fs0,0(s0)
 134:	053e                	slli	a0,a0,0xf
 136:	e000                	fsw	fs0,0(s0)
	...
 140:	052e                	slli	a0,a0,0xb
 142:	e000                	fsw	fs0,0(s0)
 144:	0530                	addi	a2,sp,648
 146:	e000                	fsw	fs0,0(s0)
 148:	053e                	slli	a0,a0,0xf
 14a:	e000                	fsw	fs0,0(s0)
 14c:	0546                	slli	a0,a0,0x11
 14e:	e000                	fsw	fs0,0(s0)
	...
 158:	054e                	slli	a0,a0,0x13
 15a:	e000                	fsw	fs0,0(s0)
 15c:	0556                	slli	a0,a0,0x15
 15e:	e000                	fsw	fs0,0(s0)
 160:	0558                	addi	a4,sp,644
 162:	e000                	fsw	fs0,0(s0)
 164:	055a                	slli	a0,a0,0x16
 166:	e000                	fsw	fs0,0(s0)
	...
 170:	0520                	addi	s0,sp,648
 172:	e000                	fsw	fs0,0(s0)
 174:	0660                	addi	s0,sp,780
 176:	e000                	fsw	fs0,0(s0)
 178:	06dc                	addi	a5,sp,836
 17a:	e000                	fsw	fs0,0(s0)
 17c:	073e                	slli	a4,a4,0xf
 17e:	e000                	fsw	fs0,0(s0)
	...
 188:	ffff                	0xffff
 18a:	ffff                	0xffff
 18c:	0000                	unimp
 18e:	0000                	unimp
 190:	0660                	addi	s0,sp,780
 192:	e000                	fsw	fs0,0(s0)
 194:	06dc                	addi	a5,sp,836
 196:	e000                	fsw	fs0,0(s0)
 198:	0000                	unimp
 19a:	e000                	fsw	fs0,0(s0)
 19c:	0084                	addi	s1,sp,64
 19e:	e000                	fsw	fs0,0(s0)
	...

Disassembly of section .debug_line:

00000000 <.debug_line>:
   0:	0665                	addi	a2,a2,25
   2:	0000                	unimp
   4:	0002                	0x2
   6:	0000011b          	0x11b
   a:	0101                	addi	sp,sp,0
   c:	000d0efb          	0xd0efb
  10:	0101                	addi	sp,sp,0
  12:	0101                	addi	sp,sp,0
  14:	0000                	unimp
  16:	0100                	addi	s0,sp,128
  18:	0000                	unimp
  1a:	2f01                	jal	72a <_min_stack-0x18d6>
  1c:	61726373          	csrrsi	t1,0x617,4
  20:	6374                	flw	fa3,68(a4)
  22:	2f68                	fld	fa0,216(a4)
  24:	7065                	0x7065
  26:	7261                	lui	tp,0xffff8
  28:	7369                	lui	t1,0xffffa
  2a:	2f69                	jal	7c4 <_min_stack-0x183c>
  2c:	6568                	flw	fa0,76(a0)
  2e:	732d                	lui	t1,0xfffeb
  30:	682f636f          	jal	t1,f66b2 <tohost+0xd66aa>
  34:	7261                	lui	tp,0xffff8
  36:	7764                	flw	fs1,108(a4)
  38:	7261                	lui	tp,0xffff8
  3a:	2f65                	jal	7f2 <_min_stack-0x180e>
  3c:	6b726f77          	0x6b726f77
  40:	6e69                	lui	t3,0x1a
  42:	69645f67          	0x69645f67
  46:	2f72                	fld	ft10,280(sp)
  48:	6e65706f          	j	5772e <tohost+0x37726>
  4c:	6974                	flw	fa3,84(a0)
  4e:	6174                	flw	fa3,68(a0)
  50:	2f6e                	fld	ft10,216(sp)
  52:	7768                	flw	fa0,108(a4)
  54:	706f742f          	0x706f742f
  58:	655f 7261 676c      	0x676c7261655f
  5e:	6572                	flw	fa0,28(sp)
  60:	2f79                	jal	7fe <_min_stack-0x1802>
  62:	742f7773          	csrrci	a4,0x742,30
  66:	7365                	lui	t1,0xffff9
  68:	7374                	flw	fa3,100(a4)
  6a:	6d6f632f          	0x6d6f632f
  6e:	6f6d                	lui	t5,0x1b
  70:	006e                	0x6e
  72:	7273752f          	0x7273752f
  76:	6361702f          	0x6361702f
  7a:	75702f6b          	0x75702f6b
  7e:	706c                	flw	fa1,100(s0)
  80:	2d6b6473          	csrrsi	s0,0x2d6,22
  84:	2e31                	jal	3a0 <_min_stack-0x1c60>
  86:	2d30                	fld	fa2,88(a0)
  88:	2f66676b          	0x2f66676b
  8c:	7261                	lui	tp,0xffff8
  8e:	6974                	flw	fa3,84(a0)
  90:	6166                	flw	ft2,88(sp)
  92:	726f7463          	bleu	t1,t5,7ba <_min_stack-0x1846>
  96:	2f79                	jal	834 <_min_stack-0x17cc>
  98:	7570                	flw	fa2,108(a0)
  9a:	706c                	flw	fa1,100(s0)
  9c:	732d                	lui	t1,0xfffeb
  9e:	6b64                	flw	fs1,84(a4)
  a0:	722d                	lui	tp,0xfffeb
  a2:	6c65                	lui	s8,0x19
  a4:	6165                	addi	sp,sp,112
  a6:	702f6573          	csrrsi	a0,0x702,30
  aa:	702f676b          	0x702f676b
  ae:	6c75                	lui	s8,0x1d
  b0:	5f70                	lw	a2,124(a4)
  b2:	6972                	flw	fs2,28(sp)
  b4:	5f766373          	csrrsi	t1,0x5f7,12
  b8:	2f636367          	0x2f636367
  bc:	2e31                	jal	3d8 <_min_stack-0x1c28>
  be:	2e30                	fld	fa2,88(a2)
  c0:	3631                	jal	fffffbcc <pulp__FC+0xfffffbcd>
  c2:	62696c2f          	0x62696c2f
  c6:	6363672f          	0x6363672f
  ca:	7369722f          	0x7369722f
  ce:	32337663          	bleu	gp,t1,3fa <_min_stack-0x1c06>
  d2:	752d                	lui	a0,0xfffeb
  d4:	6b6e                	flw	fs6,216(sp)
  d6:	6f6e                	flw	ft10,216(sp)
  d8:	652d6e77          	0x652d6e77
  dc:	666c                	flw	fa1,76(a2)
  de:	312e372f          	0x312e372f
  e2:	312e                	fld	ft2,232(sp)
  e4:	636e692f          	0x636e692f
  e8:	756c                	flw	fa1,108(a0)
  ea:	6564                	flw	fs1,76(a0)
  ec:	0000                	unimp
  ee:	706d6973          	csrrsi	s2,0x706,26
  f2:	656c                	flw	fa1,76(a0)
  f4:	735f 7379 6574      	0x65747379735f
  fa:	5f6d                	li	t5,-5
  fc:	6d6d6f63          	bltu	s10,s6,7da <_min_stack-0x1826>
 100:	632e6e6f          	jal	t3,e6732 <tohost+0xc672a>
 104:	0100                	addi	s0,sp,128
 106:	0000                	unimp
 108:	61647473          	csrrci	s0,0x616,8
 10c:	6772                	flw	fa4,28(sp)
 10e:	682e                	flw	fa6,200(sp)
 110:	0200                	addi	s0,sp,256
 112:	0000                	unimp
 114:	69647473          	csrrci	s0,0x696,8
 118:	746e                	flw	fs0,248(sp)
 11a:	672d                	lui	a4,0xb
 11c:	682e6363          	bltu	t3,sp,7a2 <_min_stack-0x185e>
 120:	0200                	addi	s0,sp,256
 122:	0000                	unimp
 124:	0000                	unimp
 126:	0205                	addi	tp,tp,1
 128:	0084                	addi	s1,sp,64
 12a:	e000                	fsw	fs0,0(s0)
 12c:	01018e03          	lb	t3,16(gp) # 49215fe <tohost+0x49015f6>
 130:	097fbf03          	0x97fbf03
 134:	0000                	unimp
 136:	0301                	addi	t1,t1,0
 138:	000c0903          	lb	s2,0(s8) # 1d000 <_stack_len+0x15000>
 13c:	0301                	addi	t1,t1,0
 13e:	020900c7          	fmsub.d	ft1,fs2,ft0,ft0,rne
 142:	0100                	addi	s0,sp,128
 144:	02090203          	lb	tp,32(s2)
 148:	0100                	addi	s0,sp,128
 14a:	0c090003          	lb	zero,192(s2)
 14e:	0100                	addi	s0,sp,128
 150:	08090403          	lb	s0,128(s2)
 154:	0100                	addi	s0,sp,128
 156:	04090303          	lb	t1,64(s2)
 15a:	0100                	addi	s0,sp,128
 15c:	04097e03          	0x4097e03
 160:	0100                	addi	s0,sp,128
 162:	02090203          	lb	tp,32(s2)
 166:	0100                	addi	s0,sp,128
 168:	0a090103          	lb	sp,160(s2)
 16c:	0100                	addi	s0,sp,128
 16e:	04090203          	lb	tp,64(s2)
 172:	0100                	addi	s0,sp,128
 174:	04097e03          	0x4097e03
 178:	0100                	addi	s0,sp,128
 17a:	02097a03          	0x2097a03
 17e:	0100                	addi	s0,sp,128
 180:	04090803          	lb	a6,64(s2)
 184:	0100                	addi	s0,sp,128
 186:	02090803          	lb	a6,32(s2)
 18a:	0100                	addi	s0,sp,128
 18c:	08090203          	lb	tp,128(s2)
 190:	0100                	addi	s0,sp,128
 192:	02097e03          	0x2097e03
 196:	0100                	addi	s0,sp,128
 198:	02090403          	lb	s0,32(s2)
 19c:	0100                	addi	s0,sp,128
 19e:	10090603          	lb	a2,256(s2)
 1a2:	0100                	addi	s0,sp,128
 1a4:	14096e03          	p.elw	t3,320(s2)
 1a8:	0100                	addi	s0,sp,128
 1aa:	04097803          	0x4097803
 1ae:	0100                	addi	s0,sp,128
 1b0:	04090803          	lb	a6,64(s2)
 1b4:	0100                	addi	s0,sp,128
 1b6:	06090203          	lb	tp,96(s2)
 1ba:	0100                	addi	s0,sp,128
 1bc:	02090103          	lb	sp,32(s2)
 1c0:	0100                	addi	s0,sp,128
 1c2:	02097f03          	0x2097f03
 1c6:	0100                	addi	s0,sp,128
 1c8:	02090103          	lb	sp,32(s2)
 1cc:	0100                	addi	s0,sp,128
 1ce:	12090503          	lb	a0,288(s2)
 1d2:	0100                	addi	s0,sp,128
 1d4:	0a090203          	lb	tp,160(s2)
 1d8:	0100                	addi	s0,sp,128
 1da:	02097e03          	0x2097e03
 1de:	0100                	addi	s0,sp,128
 1e0:	04097003          	0x4097003
 1e4:	0100                	addi	s0,sp,128
 1e6:	04091003          	lh	zero,64(s2)
 1ea:	0100                	addi	s0,sp,128
 1ec:	0c090203          	lb	tp,192(s2)
 1f0:	0100                	addi	s0,sp,128
 1f2:	02097e03          	0x2097e03
 1f6:	0100                	addi	s0,sp,128
 1f8:	0c097803          	0xc097803
 1fc:	0100                	addi	s0,sp,128
 1fe:	06090a03          	lb	s4,96(s2)
 202:	0100                	addi	s0,sp,128
 204:	02097e03          	0x2097e03
 208:	0100                	addi	s0,sp,128
 20a:	0a097503          	0xa097503
 20e:	0100                	addi	s0,sp,128
 210:	04091703          	lh	a4,64(s2)
 214:	0100                	addi	s0,sp,128
 216:	08090703          	lb	a4,128(s2)
 21a:	0100                	addi	s0,sp,128
 21c:	06097e03          	0x6097e03
 220:	0100                	addi	s0,sp,128
 222:	02090903          	lb	s2,32(s2)
 226:	0100                	addi	s0,sp,128
 228:	08090703          	lb	a4,128(s2)
 22c:	0100                	addi	s0,sp,128
 22e:	04090303          	lb	t1,64(s2)
 232:	0100                	addi	s0,sp,128
 234:	08096803          	p.elw	a6,128(s2)
 238:	0100                	addi	s0,sp,128
 23a:	04091d03          	lh	s10,64(s2)
 23e:	0100                	addi	s0,sp,128
 240:	02090103          	lb	sp,32(s2)
 244:	0100                	addi	s0,sp,128
 246:	04097d03          	0x4097d03
 24a:	0100                	addi	s0,sp,128
 24c:	04090503          	lb	a0,64(s2)
 250:	0100                	addi	s0,sp,128
 252:	02090103          	lb	sp,32(s2)
 256:	0100                	addi	s0,sp,128
 258:	04097c03          	0x4097c03
 25c:	0100                	addi	s0,sp,128
 25e:	04090103          	lb	sp,64(s2)
 262:	0100                	addi	s0,sp,128
 264:	02090203          	lb	tp,32(s2)
 268:	0100                	addi	s0,sp,128
 26a:	08097a03          	0x8097a03
 26e:	0100                	addi	s0,sp,128
 270:	04096a03          	p.elw	s4,64(s2)
 274:	0100                	addi	s0,sp,128
 276:	02093303          	0x2093303
 27a:	0100                	addi	s0,sp,128
 27c:	08090103          	lb	sp,128(s2)
 280:	0100                	addi	s0,sp,128
 282:	0a095d03          	lhu	s10,160(s2)
 286:	0100                	addi	s0,sp,128
 288:	04090303          	lb	t1,64(s2)
 28c:	0100                	addi	s0,sp,128
 28e:	097fb503          	0x97fb503
 292:	0006                	0x6
 294:	0301                	addi	t1,t1,0
 296:	040900cb          	fnmsub.h	ra,s2,zero,zero,rne
 29a:	0100                	addi	s0,sp,128
 29c:	097fb503          	0x97fb503
 2a0:	000c                	addi	a1,sp,0
 2a2:	0301                	addi	t1,t1,0
 2a4:	0970                	addi	a2,sp,156
 2a6:	000c                	addi	a1,sp,0
 2a8:	0301                	addi	t1,t1,0
 2aa:	0901                	addi	s2,s2,0
 2ac:	0006                	0x6
 2ae:	0301                	addi	t1,t1,0
 2b0:	0901                	addi	s2,s2,0
 2b2:	0006                	0x6
 2b4:	0301                	addi	t1,t1,0
 2b6:	090e                	slli	s2,s2,0x3
 2b8:	0006                	0x6
 2ba:	0301                	addi	t1,t1,0
 2bc:	00040973          	0x40973
 2c0:	0301                	addi	t1,t1,0
 2c2:	090d                	addi	s2,s2,3
 2c4:	0004                	addi	s1,sp,0
 2c6:	0301                	addi	t1,t1,0
 2c8:	00040973          	0x40973
 2cc:	0301                	addi	t1,t1,0
 2ce:	0901                	addi	s2,s2,0
 2d0:	0002                	0x2
 2d2:	0301                	addi	t1,t1,0
 2d4:	090c                	addi	a1,sp,144
 2d6:	0002                	0x2
 2d8:	0301                	addi	t1,t1,0
 2da:	0901                	addi	s2,s2,0
 2dc:	0004                	addi	s1,sp,0
 2de:	0301                	addi	t1,t1,0
 2e0:	0974                	addi	a3,sp,156
 2e2:	0002                	0x2
 2e4:	0301                	addi	t1,t1,0
 2e6:	00e4                	addi	s1,sp,76
 2e8:	0409                	addi	s0,s0,2
 2ea:	0100                	addi	s0,sp,128
 2ec:	097f9c03          	lh	s8,151(t6)
 2f0:	0004                	addi	s1,sp,0
 2f2:	0301                	addi	t1,t1,0
 2f4:	0902                	slli	s2,s2,0x0
 2f6:	0006                	0x6
 2f8:	0301                	addi	t1,t1,0
 2fa:	00e2                	slli	ra,ra,0x18
 2fc:	0609                	addi	a2,a2,2
 2fe:	0100                	addi	s0,sp,128
 300:	097f9e03          	lh	t3,151(t6)
 304:	0006                	0x6
 306:	0301                	addi	t1,t1,0
 308:	00e2                	slli	ra,ra,0x18
 30a:	0409                	addi	s0,s0,2
 30c:	0100                	addi	s0,sp,128
 30e:	097f9e03          	lh	t3,151(t6)
 312:	0004                	addi	s1,sp,0
 314:	0301                	addi	t1,t1,0
 316:	00e1                	addi	ra,ra,24
 318:	0209                	addi	tp,tp,2
 31a:	0100                	addi	s0,sp,128
 31c:	04090603          	lb	a2,64(s2)
 320:	0100                	addi	s0,sp,128
 322:	02090103          	lb	sp,32(s2)
 326:	0100                	addi	s0,sp,128
 328:	12090403          	lb	s0,288(s2)
 32c:	0100                	addi	s0,sp,128
 32e:	04097f03          	0x4097f03
 332:	0100                	addi	s0,sp,128
 334:	02090103          	lb	sp,32(s2)
 338:	0100                	addi	s0,sp,128
 33a:	06090403          	lb	s0,96(s2)
 33e:	0100                	addi	s0,sp,128
 340:	0e095703          	lhu	a4,224(s2)
 344:	0100                	addi	s0,sp,128
 346:	02097e03          	0x2097e03
 34a:	0100                	addi	s0,sp,128
 34c:	04090203          	lb	tp,64(s2)
 350:	0100                	addi	s0,sp,128
 352:	04097e03          	0x4097e03
 356:	0100                	addi	s0,sp,128
 358:	04090203          	lb	tp,64(s2)
 35c:	0100                	addi	s0,sp,128
 35e:	02092d03          	lw	s10,32(s2)
 362:	0100                	addi	s0,sp,128
 364:	0a095603          	lhu	a2,160(s2)
 368:	0100                	addi	s0,sp,128
 36a:	04090703          	lb	a4,64(s2)
 36e:	0100                	addi	s0,sp,128
 370:	04096f03          	p.elw	t5,64(s2)
 374:	0100                	addi	s0,sp,128
 376:	04092203          	lw	tp,64(s2)
 37a:	0100                	addi	s0,sp,128
 37c:	04096b03          	p.elw	s6,64(s2)
 380:	0100                	addi	s0,sp,128
 382:	04090403          	lb	s0,64(s2)
 386:	0100                	addi	s0,sp,128
 388:	097edd03          	lhu	s10,151(t4)
 38c:	0006                	0x6
 38e:	0301                	addi	t1,t1,0
 390:	0901                	addi	s2,s2,0
 392:	0000                	unimp
 394:	0301                	addi	t1,t1,0
 396:	0901                	addi	s2,s2,0
 398:	000a                	0xa
 39a:	0301                	addi	t1,t1,0
 39c:	0901                	addi	s2,s2,0
 39e:	0006                	0x6
 3a0:	0301                	addi	t1,t1,0
 3a2:	0901                	addi	s2,s2,0
 3a4:	0006                	0x6
 3a6:	0301                	addi	t1,t1,0
 3a8:	0901                	addi	s2,s2,0
 3aa:	0006                	0x6
 3ac:	0301                	addi	t1,t1,0
 3ae:	0902                	slli	s2,s2,0x0
 3b0:	0004                	addi	s1,sp,0
 3b2:	0301                	addi	t1,t1,0
 3b4:	0901                	addi	s2,s2,0
 3b6:	000c                	addi	a1,sp,0
 3b8:	0301                	addi	t1,t1,0
 3ba:	0902                	slli	s2,s2,0x0
 3bc:	0002                	0x2
 3be:	0301                	addi	t1,t1,0
 3c0:	00000907          	0x907
 3c4:	0301                	addi	t1,t1,0
 3c6:	097c                	addi	a5,sp,156
 3c8:	0004                	addi	s1,sp,0
 3ca:	0001                	nop
 3cc:	0402                	slli	s0,s0,0x0
 3ce:	0301                	addi	t1,t1,0
 3d0:	0904                	addi	s1,sp,144
 3d2:	0002                	0x2
 3d4:	0301                	addi	t1,t1,0
 3d6:	0904                	addi	s1,sp,144
 3d8:	0008                	addi	a0,sp,0
 3da:	0301                	addi	t1,t1,0
 3dc:	0902                	slli	s2,s2,0x0
 3de:	0008                	addi	a0,sp,0
 3e0:	0301                	addi	t1,t1,0
 3e2:	097e                	slli	s2,s2,0x1f
 3e4:	0002                	0x2
 3e6:	0001                	nop
 3e8:	0402                	slli	s0,s0,0x0
 3ea:	0604                	addi	s1,sp,768
 3ec:	08090003          	lb	zero,128(s2)
 3f0:	0100                	addi	s0,sp,128
 3f2:	0200                	addi	s0,sp,256
 3f4:	0404                	addi	s1,sp,512
 3f6:	0306                	slli	t1,t1,0x1
 3f8:	0902                	slli	s2,s2,0x0
 3fa:	0004                	addi	s1,sp,0
 3fc:	0001                	nop
 3fe:	0402                	slli	s0,s0,0x0
 400:	0304                	addi	s1,sp,384
 402:	097e                	slli	s2,s2,0x1f
 404:	0002                	0x2
 406:	0001                	nop
 408:	0402                	slli	s0,s0,0x0
 40a:	0304                	addi	s1,sp,384
 40c:	097e                	slli	s2,s2,0x1f
 40e:	0002                	0x2
 410:	0301                	addi	t1,t1,0
 412:	0902                	slli	s2,s2,0x0
 414:	0004                	addi	s1,sp,0
 416:	0301                	addi	t1,t1,0
 418:	097e                	slli	s2,s2,0x1f
 41a:	0002                	0x2
 41c:	0301                	addi	t1,t1,0
 41e:	00040907          	0x40907
 422:	0301                	addi	t1,t1,0
 424:	0002097b          	0x2097b
 428:	0301                	addi	t1,t1,0
 42a:	00040907          	0x40907
 42e:	0301                	addi	t1,t1,0
 430:	0901                	addi	s2,s2,0
 432:	0000                	unimp
 434:	0001                	nop
 436:	0402                	slli	s0,s0,0x0
 438:	0601                	addi	a2,a2,0
 43a:	04090003          	lb	zero,64(s2)
 43e:	0100                	addi	s0,sp,128
 440:	0306                	slli	t1,t1,0x1
 442:	0902                	slli	s2,s2,0x0
 444:	0006                	0x6
 446:	0301                	addi	t1,t1,0
 448:	0901                	addi	s2,s2,0
 44a:	0002                	0x2
 44c:	0301                	addi	t1,t1,0
 44e:	0902                	slli	s2,s2,0x0
 450:	0006                	0x6
 452:	0301                	addi	t1,t1,0
 454:	0902                	slli	s2,s2,0x0
 456:	0000                	unimp
 458:	0001                	nop
 45a:	0402                	slli	s0,s0,0x0
 45c:	0601                	addi	a2,a2,0
 45e:	04090003          	lb	zero,64(s2)
 462:	0100                	addi	s0,sp,128
 464:	0306                	slli	t1,t1,0x1
 466:	00080903          	lb	s2,0(a6)
 46a:	0301                	addi	t1,t1,0
 46c:	0901                	addi	s2,s2,0
 46e:	0002                	0x2
 470:	0301                	addi	t1,t1,0
 472:	0902                	slli	s2,s2,0x0
 474:	0002                	0x2
 476:	0301                	addi	t1,t1,0
 478:	0902                	slli	s2,s2,0x0
 47a:	0000                	unimp
 47c:	0001                	nop
 47e:	0402                	slli	s0,s0,0x0
 480:	0601                	addi	a2,a2,0
 482:	04090003          	lb	zero,64(s2)
 486:	0100                	addi	s0,sp,128
 488:	0306                	slli	t1,t1,0x1
 48a:	0901                	addi	s2,s2,0
 48c:	0008                	addi	a0,sp,0
 48e:	0301                	addi	t1,t1,0
 490:	00020933          	add	s2,tp,zero
 494:	0301                	addi	t1,t1,0
 496:	0944                	addi	s1,sp,148
 498:	0000                	unimp
 49a:	0301                	addi	t1,t1,0
 49c:	000c0903          	lb	s2,0(s8)
 4a0:	0301                	addi	t1,t1,0
 4a2:	093c                	addi	a5,sp,152
 4a4:	0006                	0x6
 4a6:	0301                	addi	t1,t1,0
 4a8:	01aa                	slli	gp,gp,0xa
 4aa:	0209                	addi	tp,tp,2
 4ac:	0100                	addi	s0,sp,128
 4ae:	1a090003          	lb	zero,416(s2)
 4b2:	0100                	addi	s0,sp,128
 4b4:	0e094103          	lbu	sp,224(s2)
 4b8:	0100                	addi	s0,sp,128
 4ba:	0900c303          	lbu	t1,144(ra)
 4be:	0004                	addi	s1,sp,0
 4c0:	0301                	addi	t1,t1,0
 4c2:	7fbd                	lui	t6,0xfffef
 4c4:	0609                	addi	a2,a2,2
 4c6:	0100                	addi	s0,sp,128
 4c8:	04097d03          	0x4097d03
 4cc:	0100                	addi	s0,sp,128
 4ce:	02090503          	lb	a0,32(s2)
 4d2:	0100                	addi	s0,sp,128
 4d4:	04090603          	lb	a2,64(s2)
 4d8:	0100                	addi	s0,sp,128
 4da:	04090503          	lb	a0,64(s2)
 4de:	0100                	addi	s0,sp,128
 4e0:	04090503          	lb	a0,64(s2)
 4e4:	0100                	addi	s0,sp,128
 4e6:	02090403          	lb	s0,32(s2)
 4ea:	0100                	addi	s0,sp,128
 4ec:	04090503          	lb	a0,64(s2)
 4f0:	0100                	addi	s0,sp,128
 4f2:	04097d03          	0x4097d03
 4f6:	0100                	addi	s0,sp,128
 4f8:	0a096a03          	p.elw	s4,160(s2)
 4fc:	0100                	addi	s0,sp,128
 4fe:	0c093403          	0xc093403
 502:	0100                	addi	s0,sp,128
 504:	02094a03          	lbu	s4,32(s2)
 508:	0100                	addi	s0,sp,128
 50a:	0a090203          	lb	tp,160(s2)
 50e:	0100                	addi	s0,sp,128
 510:	04090403          	lb	s0,64(s2)
 514:	0100                	addi	s0,sp,128
 516:	06090103          	lb	sp,96(s2)
 51a:	0100                	addi	s0,sp,128
 51c:	08097e03          	0x8097e03
 520:	0100                	addi	s0,sp,128
 522:	02090303          	lb	t1,32(s2)
 526:	0100                	addi	s0,sp,128
 528:	04090503          	lb	a0,64(s2)
 52c:	0100                	addi	s0,sp,128
 52e:	04090203          	lb	tp,64(s2)
 532:	0100                	addi	s0,sp,128
 534:	02097e03          	0x2097e03
 538:	0100                	addi	s0,sp,128
 53a:	04090303          	lb	t1,64(s2)
 53e:	0100                	addi	s0,sp,128
 540:	04097d03          	0x4097d03
 544:	0100                	addi	s0,sp,128
 546:	04090503          	lb	a0,64(s2)
 54a:	0100                	addi	s0,sp,128
 54c:	08097303          	0x8097303
 550:	0100                	addi	s0,sp,128
 552:	02090d03          	lb	s10,32(s2)
 556:	0100                	addi	s0,sp,128
 558:	06090103          	lb	sp,96(s2)
 55c:	0100                	addi	s0,sp,128
 55e:	04097f03          	0x4097f03
 562:	0100                	addi	s0,sp,128
 564:	04090103          	lb	sp,64(s2)
 568:	0100                	addi	s0,sp,128
 56a:	04090103          	lb	sp,64(s2)
 56e:	0100                	addi	s0,sp,128
 570:	04097e03          	0x4097e03
 574:	0100                	addi	s0,sp,128
 576:	10090403          	lb	s0,256(s2)
 57a:	0100                	addi	s0,sp,128
 57c:	04090503          	lb	a0,64(s2)
 580:	0100                	addi	s0,sp,128
 582:	04090403          	lb	s0,64(s2)
 586:	0100                	addi	s0,sp,128
 588:	08090403          	lb	s0,128(s2)
 58c:	0100                	addi	s0,sp,128
 58e:	08090403          	lb	s0,128(s2)
 592:	0100                	addi	s0,sp,128
 594:	08090403          	lb	s0,128(s2)
 598:	0100                	addi	s0,sp,128
 59a:	08090103          	lb	sp,128(s2)
 59e:	0100                	addi	s0,sp,128
 5a0:	04090203          	lb	tp,64(s2)
 5a4:	0100                	addi	s0,sp,128
 5a6:	04097e03          	0x4097e03
 5aa:	0100                	addi	s0,sp,128
 5ac:	04090103          	lb	sp,64(s2)
 5b0:	0100                	addi	s0,sp,128
 5b2:	04090103          	lb	sp,64(s2)
 5b6:	0100                	addi	s0,sp,128
 5b8:	02097e03          	0x2097e03
 5bc:	0100                	addi	s0,sp,128
 5be:	02090203          	lb	tp,32(s2)
 5c2:	0100                	addi	s0,sp,128
 5c4:	08095c03          	lhu	s8,128(s2)
 5c8:	0100                	addi	s0,sp,128
 5ca:	04090103          	lb	sp,64(s2)
 5ce:	0100                	addi	s0,sp,128
 5d0:	04097203          	0x4097203
 5d4:	0100                	addi	s0,sp,128
 5d6:	0900ce03          	lbu	t3,144(ra)
 5da:	0002                	0x2
 5dc:	0301                	addi	t1,t1,0
 5de:	094c                	addi	a1,sp,148
 5e0:	001e                	0x1e
 5e2:	0301                	addi	t1,t1,0
 5e4:	0901                	addi	s2,s2,0
 5e6:	0006                	0x6
 5e8:	0301                	addi	t1,t1,0
 5ea:	0904                	addi	s1,sp,144
 5ec:	000a                	0xa
 5ee:	0301                	addi	t1,t1,0
 5f0:	0904                	addi	s1,sp,144
 5f2:	0016                	0x16
 5f4:	0301                	addi	t1,t1,0
 5f6:	0904                	addi	s1,sp,144
 5f8:	0016                	0x16
 5fa:	0301                	addi	t1,t1,0
 5fc:	0904                	addi	s1,sp,144
 5fe:	0008                	addi	a0,sp,0
 600:	0301                	addi	t1,t1,0
 602:	0970                	addi	a2,sp,156
 604:	0018                	addi	a4,sp,0
 606:	0301                	addi	t1,t1,0
 608:	04097e8b          	0x4097e8b
 60c:	0100                	addi	s0,sp,128
 60e:	00090103          	lb	sp,0(s2)
 612:	0100                	addi	s0,sp,128
 614:	0902aa03          	lw	s4,144(t0) # 11944e4 <tohost+0x11744dc>
 618:	000a                	0xa
 61a:	0301                	addi	t1,t1,0
 61c:	00000903          	lb	s2,0(zero) # 0 <_min_stack-0x2000>
 620:	0301                	addi	t1,t1,0
 622:	7e85                	lui	t4,0xfffe1
 624:	0a09                	addi	s4,s4,2
 626:	0100                	addi	s0,sp,128
 628:	0901f903          	0x901f903
 62c:	0004                	addi	s1,sp,0
 62e:	0301                	addi	t1,t1,0
 630:	00020903          	lb	s2,0(tp) # fffeb000 <pulp__FC+0xfffeb001>
 634:	0301                	addi	t1,t1,0
 636:	7e84                	flw	fs1,56(a3)
 638:	0209                	addi	tp,tp,2
 63a:	0100                	addi	s0,sp,128
 63c:	08090303          	lb	t1,128(s2)
 640:	0100                	addi	s0,sp,128
 642:	0901f803          	0x901f803
 646:	0004                	addi	s1,sp,0
 648:	0301                	addi	t1,t1,0
 64a:	7e85                	lui	t4,0xfffe1
 64c:	0609                	addi	a2,a2,2
 64e:	0100                	addi	s0,sp,128
 650:	0c090303          	lb	t1,192(s2)
 654:	0100                	addi	s0,sp,128
 656:	0901fe03          	0x901fe03
 65a:	0004                	addi	s1,sp,0
 65c:	0301                	addi	t1,t1,0
 65e:	0978                	addi	a4,sp,156
 660:	0002                	0x2
 662:	0901                	addi	s2,s2,0
 664:	0004                	addi	s1,sp,0
 666:	0100                	addi	s0,sp,128
 668:	8701                	srai	a4,a4,0x0
 66a:	0002                	0x2
 66c:	0200                	addi	s0,sp,256
 66e:	2000                	fld	fs0,0(s0)
 670:	0001                	nop
 672:	0100                	addi	s0,sp,128
 674:	fb01                	bnez	a4,584 <_min_stack-0x1a7c>
 676:	0d0e                	slli	s10,s10,0x3
 678:	0100                	addi	s0,sp,128
 67a:	0101                	addi	sp,sp,0
 67c:	0001                	nop
 67e:	0000                	unimp
 680:	0001                	nop
 682:	0100                	addi	s0,sp,128
 684:	7273752f          	0x7273752f
 688:	6361702f          	0x6361702f
 68c:	75702f6b          	0x75702f6b
 690:	706c                	flw	fa1,100(s0)
 692:	2d6b6473          	csrrsi	s0,0x2d6,22
 696:	2e31                	jal	9b2 <_min_stack-0x164e>
 698:	2d30                	fld	fa2,88(a0)
 69a:	2f66676b          	0x2f66676b
 69e:	7261                	lui	tp,0xffff8
 6a0:	6974                	flw	fa3,84(a0)
 6a2:	6166                	flw	ft2,88(sp)
 6a4:	726f7463          	bleu	t1,t5,dcc <_min_stack-0x1234>
 6a8:	2f79                	jal	e46 <_min_stack-0x11ba>
 6aa:	7570                	flw	fa2,108(a0)
 6ac:	706c                	flw	fa1,100(s0)
 6ae:	732d                	lui	t1,0xfffeb
 6b0:	6b64                	flw	fs1,84(a4)
 6b2:	722d                	lui	tp,0xfffeb
 6b4:	6c65                	lui	s8,0x19
 6b6:	6165                	addi	sp,sp,112
 6b8:	702f6573          	csrrsi	a0,0x702,30
 6bc:	702f676b          	0x702f676b
 6c0:	6c75                	lui	s8,0x1d
 6c2:	5f70                	lw	a2,124(a4)
 6c4:	6972                	flw	fs2,28(sp)
 6c6:	5f766373          	csrrsi	t1,0x5f7,12
 6ca:	2f636367          	0x2f636367
 6ce:	2e31                	jal	9ea <_min_stack-0x1616>
 6d0:	2e30                	fld	fa2,88(a2)
 6d2:	3631                	jal	1de <_min_stack-0x1e22>
 6d4:	62696c2f          	0x62696c2f
 6d8:	6363672f          	0x6363672f
 6dc:	7369722f          	0x7369722f
 6e0:	32337663          	bleu	gp,t1,a0c <_min_stack-0x15f4>
 6e4:	752d                	lui	a0,0xfffeb
 6e6:	6b6e                	flw	fs6,216(sp)
 6e8:	6f6e                	flw	ft10,216(sp)
 6ea:	652d6e77          	0x652d6e77
 6ee:	666c                	flw	fa1,76(a2)
 6f0:	312e372f          	0x312e372f
 6f4:	312e                	fld	ft2,232(sp)
 6f6:	636e692f          	0x636e692f
 6fa:	756c                	flw	fa1,108(a0)
 6fc:	6564                	flw	fs1,76(a0)
 6fe:	2f00                	fld	fs0,24(a4)
 700:	61726373          	csrrsi	t1,0x617,4
 704:	6374                	flw	fa3,68(a4)
 706:	2f68                	fld	fa0,216(a4)
 708:	7065                	0x7065
 70a:	7261                	lui	tp,0xffff8
 70c:	7369                	lui	t1,0xffffa
 70e:	2f69                	jal	ea8 <_min_stack-0x1158>
 710:	6568                	flw	fa0,76(a0)
 712:	732d                	lui	t1,0xfffeb
 714:	682f636f          	jal	t1,f6d96 <tohost+0xd6d8e>
 718:	7261                	lui	tp,0xffff8
 71a:	7764                	flw	fs1,108(a4)
 71c:	7261                	lui	tp,0xffff8
 71e:	2f65                	jal	ed6 <_min_stack-0x112a>
 720:	6b726f77          	0x6b726f77
 724:	6e69                	lui	t3,0x1a
 726:	69645f67          	0x69645f67
 72a:	2f72                	fld	ft10,280(sp)
 72c:	6e65706f          	j	57e12 <tohost+0x37e0a>
 730:	6974                	flw	fa3,84(a0)
 732:	6174                	flw	fa3,68(a0)
 734:	2f6e                	fld	ft10,216(sp)
 736:	7768                	flw	fa0,108(a4)
 738:	706f742f          	0x706f742f
 73c:	655f 7261 676c      	0x676c7261655f
 742:	6572                	flw	fa0,28(sp)
 744:	2f79                	jal	ee2 <_min_stack-0x111e>
 746:	742f7773          	csrrci	a4,0x742,30
 74a:	7365                	lui	t1,0xffff9
 74c:	7374                	flw	fa3,100(a4)
 74e:	6d6f632f          	0x6d6f632f
 752:	6f6d                	lui	t5,0x1b
 754:	006e                	0x6e
 756:	7300                	flw	fs0,32(a4)
 758:	6168                	flw	fa0,68(a0)
 75a:	6f64                	flw	fs1,92(a4)
 75c:	61747377          	0x61747377
 760:	632e6b63          	bltu	t3,s2,d96 <_min_stack-0x126a>
 764:	0000                	unimp
 766:	0000                	unimp
 768:	69647473          	csrrci	s0,0x696,8
 76c:	746e                	flw	fs0,248(sp)
 76e:	672d                	lui	a4,0xb
 770:	682e6363          	bltu	t3,sp,df6 <_min_stack-0x120a>
 774:	0100                	addi	s0,sp,128
 776:	0000                	unimp
 778:	706d6973          	csrrsi	s2,0x706,26
 77c:	656c                	flw	fa1,76(a0)
 77e:	735f 7379 6574      	0x65747379735f
 784:	5f6d                	li	t5,-5
 786:	6d6d6f63          	bltu	s10,s6,e64 <_min_stack-0x119c>
 78a:	682e6e6f          	jal	t3,e6e0c <tohost+0xc6e04>
 78e:	0200                	addi	s0,sp,256
 790:	0000                	unimp
 792:	0000                	unimp
 794:	0205                	addi	tp,tp,1
 796:	0520                	addi	s0,sp,648
 798:	e000                	fsw	fs0,0(s0)
 79a:	0101d703          	lhu	a4,16(gp)
 79e:	097fad03          	lw	s10,151(t6) # fffef097 <pulp__FC+0xfffef098>
 7a2:	0004                	addi	s1,sp,0
 7a4:	0301                	addi	t1,t1,0
 7a6:	040900d3          	fadd.h	ra,s2,zero,rne
 7aa:	0100                	addi	s0,sp,128
 7ac:	097ef103          	0x97ef103
 7b0:	0006                	0x6
 7b2:	0301                	addi	t1,t1,0
 7b4:	0209018f          	0x209018f
 7b8:	0100                	addi	s0,sp,128
 7ba:	04090903          	lb	s2,64(s2)
 7be:	0100                	addi	s0,sp,128
 7c0:	097fa403          	lw	s0,151(t6)
 7c4:	0006                	0x6
 7c6:	0301                	addi	t1,t1,0
 7c8:	0944                	addi	s1,sp,148
 7ca:	0004                	addi	s1,sp,0
 7cc:	0301                	addi	t1,t1,0
 7ce:	0809019b          	0x809019b
 7d2:	0100                	addi	s0,sp,128
 7d4:	097efd03          	0x97efd03
 7d8:	0008                	addi	a0,sp,0
 7da:	0301                	addi	t1,t1,0
 7dc:	0189                	addi	gp,gp,2
 7de:	0809                	addi	a6,a6,2
 7e0:	0100                	addi	s0,sp,128
 7e2:	097ef703          	0x97ef703
 7e6:	0002                	0x2
 7e8:	0301                	addi	t1,t1,0
 7ea:	0189                	addi	gp,gp,2
 7ec:	0209                	addi	tp,tp,2
 7ee:	0100                	addi	s0,sp,128
 7f0:	097f9403          	lh	s0,151(t6)
 7f4:	000a                	0xa
 7f6:	0301                	addi	t1,t1,0
 7f8:	0901                	addi	s2,s2,0
 7fa:	0006                	0x6
 7fc:	0301                	addi	t1,t1,0
 7fe:	00f6                	slli	ra,ra,0x1d
 800:	0409                	addi	s0,s0,2
 802:	0100                	addi	s0,sp,128
 804:	0a090103          	lb	sp,160(s2)
 808:	0100                	addi	s0,sp,128
 80a:	097fbf03          	0x97fbf03
 80e:	0012                	0x12
 810:	0301                	addi	t1,t1,0
 812:	0936                	slli	s2,s2,0xd
 814:	000a                	0xa
 816:	0301                	addi	t1,t1,0
 818:	7f8a                	flw	ft11,160(sp)
 81a:	0a09                	addi	s4,s4,2
 81c:	0100                	addi	s0,sp,128
 81e:	08093203          	0x8093203
 822:	0100                	addi	s0,sp,128
 824:	08097f03          	0x8097f03
 828:	0100                	addi	s0,sp,128
 82a:	08090103          	lb	sp,128(s2)
 82e:	0100                	addi	s0,sp,128
 830:	10090803          	lb	a6,256(s2)
 834:	0100                	addi	s0,sp,128
 836:	0a093603          	0xa093603
 83a:	0100                	addi	s0,sp,128
 83c:	097f8603          	lb	a2,151(t6)
 840:	000a                	0xa
 842:	0301                	addi	t1,t1,0
 844:	00080933          	add	s2,a6,zero
 848:	0301                	addi	t1,t1,0
 84a:	097f                	0x97f
 84c:	0002                	0x2
 84e:	0301                	addi	t1,t1,0
 850:	0901                	addi	s2,s2,0
 852:	0004                	addi	s1,sp,0
 854:	0301                	addi	t1,t1,0
 856:	0921                	addi	s2,s2,8
 858:	000a                	0xa
 85a:	0301                	addi	t1,t1,0
 85c:	097f                	0x97f
 85e:	0014                	addi	a3,sp,0
 860:	0301                	addi	t1,t1,0
 862:	00040903          	lb	s2,0(s0) # ffffa000 <pulp__FC+0xffffa001>
 866:	0301                	addi	t1,t1,0
 868:	0018090b          	p.lb	s2,1(a6!)
 86c:	0301                	addi	t1,t1,0
 86e:	097f                	0x97f
 870:	0020                	addi	s0,sp,8
 872:	0301                	addi	t1,t1,0
 874:	00040903          	lb	s2,0(s0)
 878:	0901                	addi	s2,s2,0
 87a:	001a                	0x1a
 87c:	0100                	addi	s0,sp,128
 87e:	0001                	nop
 880:	0205                	addi	tp,tp,1
 882:	06dc                	addi	a5,sp,836
 884:	e000                	fsw	fs0,0(s0)
 886:	0101fd03          	p.lb	s10,a6(gp)
 88a:	02090a03          	lb	s4,32(s2)
 88e:	0100                	addi	s0,sp,128
 890:	04097603          	0x4097603
 894:	0100                	addi	s0,sp,128
 896:	02090a03          	lb	s4,32(s2)
 89a:	0100                	addi	s0,sp,128
 89c:	02090503          	lb	a0,32(s2)
 8a0:	0100                	addi	s0,sp,128
 8a2:	0a090103          	lb	sp,160(s2)
 8a6:	0100                	addi	s0,sp,128
 8a8:	02090a03          	lb	s4,32(s2)
 8ac:	0100                	addi	s0,sp,128
 8ae:	04090103          	lb	sp,64(s2)
 8b2:	0100                	addi	s0,sp,128
 8b4:	04090103          	lb	sp,64(s2)
 8b8:	0100                	addi	s0,sp,128
 8ba:	04090103          	lb	sp,64(s2)
 8be:	0100                	addi	s0,sp,128
 8c0:	02097e03          	0x2097e03
 8c4:	0100                	addi	s0,sp,128
 8c6:	04090803          	lb	a6,64(s2)
 8ca:	0100                	addi	s0,sp,128
 8cc:	0a090403          	lb	s0,160(s2)
 8d0:	0100                	addi	s0,sp,128
 8d2:	0a090203          	lb	tp,160(s2)
 8d6:	0100                	addi	s0,sp,128
 8d8:	0a090303          	lb	t1,160(s2)
 8dc:	0100                	addi	s0,sp,128
 8de:	0a090103          	lb	sp,160(s2)
 8e2:	0100                	addi	s0,sp,128
 8e4:	0200                	addi	s0,sp,256
 8e6:	0104                	addi	s1,sp,128
 8e8:	08090403          	lb	s0,128(s2)
 8ec:	0100                	addi	s0,sp,128
 8ee:	0a09                	addi	s4,s4,2
 8f0:	0000                	unimp
 8f2:	0101                	addi	sp,sp,0
 8f4:	01c1                	addi	gp,gp,16
 8f6:	0000                	unimp
 8f8:	0002                	0x2
 8fa:	0074                	addi	a3,sp,12
 8fc:	0000                	unimp
 8fe:	0101                	addi	sp,sp,0
 900:	000d0efb          	0xd0efb
 904:	0101                	addi	sp,sp,0
 906:	0101                	addi	sp,sp,0
 908:	0000                	unimp
 90a:	0100                	addi	s0,sp,128
 90c:	0000                	unimp
 90e:	2f01                	jal	101e <_min_stack-0xfe2>
 910:	61726373          	csrrsi	t1,0x617,4
 914:	6374                	flw	fa3,68(a4)
 916:	2f68                	fld	fa0,216(a4)
 918:	7065                	0x7065
 91a:	7261                	lui	tp,0xffff8
 91c:	7369                	lui	t1,0xffffa
 91e:	2f69                	jal	10b8 <_min_stack-0xf48>
 920:	6568                	flw	fa0,76(a0)
 922:	732d                	lui	t1,0xfffeb
 924:	682f636f          	jal	t1,f6fa6 <tohost+0xd6f9e>
 928:	7261                	lui	tp,0xffff8
 92a:	7764                	flw	fs1,108(a4)
 92c:	7261                	lui	tp,0xffff8
 92e:	2f65                	jal	10e6 <_min_stack-0xf1a>
 930:	6b726f77          	0x6b726f77
 934:	6e69                	lui	t3,0x1a
 936:	69645f67          	0x69645f67
 93a:	2f72                	fld	ft10,280(sp)
 93c:	6e65706f          	j	58022 <tohost+0x3801a>
 940:	6974                	flw	fa3,84(a0)
 942:	6174                	flw	fa3,68(a0)
 944:	2f6e                	fld	ft10,216(sp)
 946:	7768                	flw	fa0,108(a4)
 948:	706f742f          	0x706f742f
 94c:	655f 7261 676c      	0x676c7261655f
 952:	6572                	flw	fa0,28(sp)
 954:	2f79                	jal	10f2 <_min_stack-0xf0e>
 956:	742f7773          	csrrci	a4,0x742,30
 95a:	7365                	lui	t1,0xffff9
 95c:	7374                	flw	fa3,100(a4)
 95e:	6d6f632f          	0x6d6f632f
 962:	6f6d                	lui	t5,0x1b
 964:	006e                	0x6e
 966:	6300                	flw	fs0,0(a4)
 968:	7472                	flw	fs0,60(sp)
 96a:	2e30                	fld	fa2,88(a2)
 96c:	00010053          	fadd.s	ft0,ft2,ft0,rne
 970:	0000                	unimp
 972:	0500                	addi	s0,sp,640
 974:	6002                	flw	ft0,0(sp)
 976:	0006                	0x6
 978:	03e0                	addi	s0,sp,460
 97a:	0109                	addi	sp,sp,2
 97c:	04090403          	lb	s0,64(s2)
 980:	0100                	addi	s0,sp,128
 982:	04090103          	lb	sp,64(s2)
 986:	0100                	addi	s0,sp,128
 988:	02090103          	lb	sp,32(s2)
 98c:	0100                	addi	s0,sp,128
 98e:	02090103          	lb	sp,32(s2)
 992:	0100                	addi	s0,sp,128
 994:	02090103          	lb	sp,32(s2)
 998:	0100                	addi	s0,sp,128
 99a:	02090103          	lb	sp,32(s2)
 99e:	0100                	addi	s0,sp,128
 9a0:	02090103          	lb	sp,32(s2)
 9a4:	0100                	addi	s0,sp,128
 9a6:	02090103          	lb	sp,32(s2)
 9aa:	0100                	addi	s0,sp,128
 9ac:	02090103          	lb	sp,32(s2)
 9b0:	0100                	addi	s0,sp,128
 9b2:	02090103          	lb	sp,32(s2)
 9b6:	0100                	addi	s0,sp,128
 9b8:	02090103          	lb	sp,32(s2)
 9bc:	0100                	addi	s0,sp,128
 9be:	02090103          	lb	sp,32(s2)
 9c2:	0100                	addi	s0,sp,128
 9c4:	02090103          	lb	sp,32(s2)
 9c8:	0100                	addi	s0,sp,128
 9ca:	02090103          	lb	sp,32(s2)
 9ce:	0100                	addi	s0,sp,128
 9d0:	02090103          	lb	sp,32(s2)
 9d4:	0100                	addi	s0,sp,128
 9d6:	02090103          	lb	sp,32(s2)
 9da:	0100                	addi	s0,sp,128
 9dc:	02090103          	lb	sp,32(s2)
 9e0:	0100                	addi	s0,sp,128
 9e2:	02090103          	lb	sp,32(s2)
 9e6:	0100                	addi	s0,sp,128
 9e8:	02090103          	lb	sp,32(s2)
 9ec:	0100                	addi	s0,sp,128
 9ee:	02090103          	lb	sp,32(s2)
 9f2:	0100                	addi	s0,sp,128
 9f4:	02090103          	lb	sp,32(s2)
 9f8:	0100                	addi	s0,sp,128
 9fa:	02090103          	lb	sp,32(s2)
 9fe:	0100                	addi	s0,sp,128
 a00:	02090103          	lb	sp,32(s2)
 a04:	0100                	addi	s0,sp,128
 a06:	02090103          	lb	sp,32(s2)
 a0a:	0100                	addi	s0,sp,128
 a0c:	02090103          	lb	sp,32(s2)
 a10:	0100                	addi	s0,sp,128
 a12:	02090103          	lb	sp,32(s2)
 a16:	0100                	addi	s0,sp,128
 a18:	02090103          	lb	sp,32(s2)
 a1c:	0100                	addi	s0,sp,128
 a1e:	02090103          	lb	sp,32(s2)
 a22:	0100                	addi	s0,sp,128
 a24:	02090103          	lb	sp,32(s2)
 a28:	0100                	addi	s0,sp,128
 a2a:	02090103          	lb	sp,32(s2)
 a2e:	0100                	addi	s0,sp,128
 a30:	02090103          	lb	sp,32(s2)
 a34:	0100                	addi	s0,sp,128
 a36:	02090303          	lb	t1,32(s2)
 a3a:	0100                	addi	s0,sp,128
 a3c:	08090703          	lb	a4,128(s2)
 a40:	0100                	addi	s0,sp,128
 a42:	08090103          	lb	sp,128(s2)
 a46:	0100                	addi	s0,sp,128
 a48:	08090103          	lb	sp,128(s2)
 a4c:	0100                	addi	s0,sp,128
 a4e:	04090403          	lb	s0,64(s2)
 a52:	0100                	addi	s0,sp,128
 a54:	04090103          	lb	sp,64(s2)
 a58:	0100                	addi	s0,sp,128
 a5a:	02090103          	lb	sp,32(s2)
 a5e:	0100                	addi	s0,sp,128
 a60:	04090603          	lb	a2,64(s2)
 a64:	0100                	addi	s0,sp,128
 a66:	04090103          	lb	sp,64(s2)
 a6a:	0100                	addi	s0,sp,128
 a6c:	04090103          	lb	sp,64(s2)
 a70:	0100                	addi	s0,sp,128
 a72:	04090303          	lb	t1,64(s2)
 a76:	0100                	addi	s0,sp,128
 a78:	04090103          	lb	sp,64(s2)
 a7c:	0100                	addi	s0,sp,128
 a7e:	0209                	addi	tp,tp,2
 a80:	0000                	unimp
 a82:	0101                	addi	sp,sp,0
 a84:	0500                	addi	s0,sp,640
 a86:	0002                	0x2
 a88:	0000                	unimp
 a8a:	03e0                	addi	s0,sp,460
 a8c:	00d5                	addi	ra,ra,21
 a8e:	0301                	addi	t1,t1,0
 a90:	0902                	slli	s2,s2,0x0
 a92:	0028                	addi	a0,sp,8
 a94:	0301                	addi	t1,t1,0
 a96:	0902                	slli	s2,s2,0x0
 a98:	0004                	addi	s1,sp,0
 a9a:	0301                	addi	t1,t1,0
 a9c:	0905                	addi	s2,s2,1
 a9e:	0004                	addi	s1,sp,0
 aa0:	0301                	addi	t1,t1,0
 aa2:	0901                	addi	s2,s2,0
 aa4:	0048                	addi	a0,sp,4
 aa6:	0301                	addi	t1,t1,0
 aa8:	0901                	addi	s2,s2,0
 aaa:	0004                	addi	s1,sp,0
 aac:	0301                	addi	t1,t1,0
 aae:	0905                	addi	s2,s2,1
 ab0:	0004                	addi	s1,sp,0
 ab2:	0901                	addi	s2,s2,0
 ab4:	0004                	addi	s1,sp,0
 ab6:	0100                	addi	s0,sp,128
 ab8:	01 3a 01 00 00          	Address 0x0000000000000ab8 is out of bounds.


Disassembly of section .debug_str:

00000000 <.debug_str>:
   0:	726f6873          	csrrsi	a6,0x726,30
   4:	2074                	fld	fa3,192(s0)
   6:	6e69                	lui	t3,0x1a
   8:	0074                	addi	a3,sp,12
   a:	7570                	flw	fa2,108(a0)
   c:	6374                	flw	fa3,68(a4)
   e:	6168                	flw	fa0,68(a0)
  10:	0072                	0x72
  12:	6170                	flw	fa2,68(a0)
  14:	6364                	flw	fs1,68(a4)
  16:	6168                	flw	fa0,68(a0)
  18:	0072                	0x72
  1a:	6175                	addi	sp,sp,368
  1c:	7472                	flw	fs0,60(sp)
  1e:	735f 7465 635f      	0x635f7465735f
  24:	6766                	flw	fa4,88(sp)
  26:	7700                	flw	fs0,40(a4)
  28:	6469                	lui	s0,0x1a
  2a:	6874                	flw	fa3,84(s0)
  2c:	7300                	flw	fs0,32(a4)
  2e:	6d69                	lui	s10,0x1a
  30:	6c70                	flw	fa2,92(s0)
  32:	5f65                	li	t5,-7
  34:	7865                	lui	a6,0xffff9
  36:	61685f63          	ble	s6,a6,654 <_min_stack-0x19ac>
  3a:	646e                	flw	fs0,216(sp)
  3c:	656c                	flw	fa1,76(a0)
  3e:	0072                	0x72
  40:	6f6c                	flw	fa1,92(a4)
  42:	676e                	flw	fa4,216(sp)
  44:	6c20                	flw	fs0,88(s0)
  46:	20676e6f          	jal	t3,7624c <tohost+0x56244>
  4a:	6e69                	lui	t3,0x1a
  4c:	0074                	addi	a3,sp,12
  4e:	6572                	flw	fa0,28(sp)
  50:	756d                	lui	a0,0xffffb
  52:	3031                	jal	fffff85e <pulp__FC+0xfffff85f>
  54:	745f 6261 656c      	0x656c6261745f
  5a:	7500                	flw	fs0,40(a0)
  5c:	7261                	lui	tp,0xffff8
  5e:	5f74                	lw	a3,124(a4)
  60:	63746567          	0x63746567
  64:	6168                	flw	fa0,68(a0)
  66:	0072                	0x72
  68:	656c                	flw	fa1,76(a0)
  6a:	6274                	flw	fa3,68(a2)
  6c:	7361                	lui	t1,0xffff8
  6e:	0065                	c.addi	zero,25
  70:	69727473          	csrrci	s0,0x697,4
  74:	676e                	flw	fa4,216(sp)
  76:	7000                	flw	fs0,32(s0)
  78:	6972                	flw	fs2,28(sp)
  7a:	746e                	flw	fs0,248(sp)
  7c:	0066                	0x66
  7e:	7071                	0x7071
  80:	6972                	flw	fs2,28(sp)
  82:	746e                	flw	fs0,248(sp)
  84:	0069                	c.addi	zero,26
  86:	6170                	flw	fa2,68(a0)
  88:	6972                	flw	fs2,28(sp)
  8a:	7974                	flw	fa3,116(a0)
  8c:	2f00                	fld	fs0,24(a4)
  8e:	61726373          	csrrsi	t1,0x617,4
  92:	6374                	flw	fa3,68(a4)
  94:	2f68                	fld	fa0,216(a4)
  96:	7065                	0x7065
  98:	7261                	lui	tp,0xffff8
  9a:	7369                	lui	t1,0xffffa
  9c:	2f69                	jal	836 <_min_stack-0x17ca>
  9e:	6568                	flw	fa0,76(a0)
  a0:	732d                	lui	t1,0xfffeb
  a2:	682f636f          	jal	t1,f6724 <tohost+0xd671c>
  a6:	7261                	lui	tp,0xffff8
  a8:	7764                	flw	fs1,108(a4)
  aa:	7261                	lui	tp,0xffff8
  ac:	2f65                	jal	864 <_min_stack-0x179c>
  ae:	6b726f77          	0x6b726f77
  b2:	6e69                	lui	t3,0x1a
  b4:	69645f67          	0x69645f67
  b8:	2f72                	fld	ft10,280(sp)
  ba:	6e65706f          	j	577a0 <tohost+0x37798>
  be:	6974                	flw	fa3,84(a0)
  c0:	6174                	flw	fa3,68(a0)
  c2:	2f6e                	fld	ft10,216(sp)
  c4:	7768                	flw	fa0,108(a4)
  c6:	706f742f          	0x706f742f
  ca:	655f 7261 676c      	0x676c7261655f
  d0:	6572                	flw	fa0,28(sp)
  d2:	2f79                	jal	870 <_min_stack-0x1790>
  d4:	742f7773          	csrrci	a4,0x742,30
  d8:	7365                	lui	t1,0xffff9
  da:	7374                	flw	fa3,100(a4)
  dc:	6d6f632f          	0x6d6f632f
  e0:	6f6d                	lui	t5,0x1b
  e2:	2f6e                	fld	ft10,216(sp)
  e4:	706d6973          	csrrsi	s2,0x706,26
  e8:	656c                	flw	fa1,76(a0)
  ea:	735f 7379 6574      	0x65747379735f
  f0:	5f6d                	li	t5,-5
  f2:	6d6d6f63          	bltu	s10,s6,7d0 <_min_stack-0x1830>
  f6:	632e6e6f          	jal	t3,e6728 <tohost+0xc6720>
  fa:	7100                	flw	fs0,32(a0)
  fc:	7270                	flw	fa2,100(a2)
  fe:	6e69                	lui	t3,0x1a
 100:	7374                	flw	fa3,100(a4)
 102:	7200                	flw	fs0,32(a2)
 104:	6d65                	lui	s10,0x19
 106:	3175                	jal	fffffdb2 <pulp__FC+0xfffffdb3>
 108:	0030                	addi	a2,sp,8
 10a:	6f6c                	flw	fa1,92(a4)
 10c:	676e                	flw	fa4,216(sp)
 10e:	6420                	flw	fs0,72(s0)
 110:	6c62756f          	jal	a0,277d6 <tohost+0x77ce>
 114:	0065                	c.addi	zero,25
 116:	6e75                	lui	t3,0x1d
 118:	6e676973          	csrrsi	s2,0x6e6,14
 11c:	6465                	lui	s0,0x19
 11e:	6320                	flw	fs0,64(a4)
 120:	6168                	flw	fa0,68(a0)
 122:	0072                	0x72
 124:	6175                	addi	sp,sp,368
 126:	7472                	flw	fs0,60(sp)
 128:	775f 6961 5f74      	0x5f746961775f
 12e:	7874                	flw	fa3,116(s0)
 130:	645f 6e6f 0065      	0x656e6f645f
 136:	6f6c                	flw	fa1,92(a4)
 138:	676e                	flw	fa4,216(sp)
 13a:	6c20                	flw	fs0,88(s0)
 13c:	20676e6f          	jal	t3,76342 <tohost+0x5633a>
 140:	6e75                	lui	t3,0x1d
 142:	6e676973          	csrrsi	s2,0x6e6,14
 146:	6465                	lui	s0,0x19
 148:	6920                	flw	fs0,80(a0)
 14a:	746e                	flw	fs0,248(sp)
 14c:	2f00                	fld	fs0,24(a4)
 14e:	61726373          	csrrsi	t1,0x617,4
 152:	6374                	flw	fa3,68(a4)
 154:	2f68                	fld	fa0,216(a4)
 156:	7065                	0x7065
 158:	7261                	lui	tp,0xffff8
 15a:	7369                	lui	t1,0xffffa
 15c:	2f69                	jal	8f6 <_min_stack-0x170a>
 15e:	6568                	flw	fa0,76(a0)
 160:	732d                	lui	t1,0xfffeb
 162:	682f636f          	jal	t1,f67e4 <tohost+0xd67dc>
 166:	7261                	lui	tp,0xffff8
 168:	7764                	flw	fs1,108(a4)
 16a:	7261                	lui	tp,0xffff8
 16c:	2f65                	jal	924 <_min_stack-0x16dc>
 16e:	6b726f77          	0x6b726f77
 172:	6e69                	lui	t3,0x1a
 174:	69645f67          	0x69645f67
 178:	2f72                	fld	ft10,280(sp)
 17a:	6e65706f          	j	57860 <tohost+0x37858>
 17e:	6974                	flw	fa3,84(a0)
 180:	6174                	flw	fa3,68(a0)
 182:	2f6e                	fld	ft10,216(sp)
 184:	7768                	flw	fa0,108(a4)
 186:	706f742f          	0x706f742f
 18a:	655f 7261 676c      	0x676c7261655f
 190:	6572                	flw	fa0,28(sp)
 192:	2f79                	jal	930 <_min_stack-0x16d0>
 194:	742f7773          	csrrci	a4,0x742,30
 198:	7365                	lui	t1,0xffff9
 19a:	7374                	flw	fa3,100(a4)
 19c:	6168732f          	0x6168732f
 1a0:	6f64                	flw	fs1,92(a4)
 1a2:	61747377          	0x61747377
 1a6:	365f6b63          	bltu	t5,t0,51c <_min_stack-0x1ae4>
 1aa:	6234                	flw	fa3,64(a2)
 1ac:	7469                	lui	s0,0xffffa
 1ae:	315f 5349 5f52      	0x5f525349315f
 1b4:	6c6c6163          	bltu	s8,t1,876 <_min_stack-0x178a>
 1b8:	7500                	flw	fs0,40(a0)
 1ba:	6e69                	lui	t3,0x1a
 1bc:	3174                	fld	fa3,224(a0)
 1be:	5f36                	lw	t5,108(sp)
 1c0:	0074                	addi	a3,sp,12
 1c2:	7570                	flw	fa2,108(a0)
 1c4:	7374                	flw	fa3,100(a4)
 1c6:	7300                	flw	fs0,32(a4)
 1c8:	6f68                	flw	fa0,92(a4)
 1ca:	7472                	flw	fs0,60(sp)
 1cc:	7520                	flw	fs0,104(a0)
 1ce:	736e                	flw	ft6,248(sp)
 1d0:	6769                	lui	a4,0x1a
 1d2:	656e                	flw	fa0,216(sp)
 1d4:	2064                	fld	fs1,192(s0)
 1d6:	6e69                	lui	t3,0x1a
 1d8:	0074                	addi	a3,sp,12
 1da:	7270                	flw	fa2,100(a2)
 1dc:	6e69                	lui	t3,0x1a
 1de:	5f74                	lw	a3,124(a4)
 1e0:	7562                	flw	fa0,56(sp)
 1e2:	0066                	0x66
 1e4:	7071                	0x7071
 1e6:	6972                	flw	fs2,28(sp)
 1e8:	746e                	flw	fs0,248(sp)
 1ea:	72616863          	bltu	sp,t1,91a <_min_stack-0x16e6>
 1ee:	4700                	lw	s0,8(a4)
 1f0:	554e                	lw	a0,240(sp)
 1f2:	4320                	lw	s0,64(a4)
 1f4:	3131                	jal	fffffe00 <pulp__FC+0xfffffe01>
 1f6:	3720                	fld	fs0,104(a4)
 1f8:	312e                	fld	ft2,232(sp)
 1fa:	312e                	fld	ft2,232(sp)
 1fc:	3220                	fld	fs0,96(a2)
 1fe:	3130                	fld	fa2,96(a0)
 200:	30353037          	lui	zero,0x30353
 204:	2039                	jal	212 <_min_stack-0x1dee>
 206:	6d2d                	lui	s10,0xb
 208:	7261                	lui	tp,0xffff8
 20a:	723d6863          	bltu	s10,gp,93a <_min_stack-0x16c6>
 20e:	3376                	fld	ft6,376(sp)
 210:	6932                	flw	fs2,12(sp)
 212:	636d                	lui	t1,0x1b
 214:	2d20                	fld	fs0,88(a0)
 216:	616d                	addi	sp,sp,240
 218:	6962                	flw	fs2,24(sp)
 21a:	693d                	lui	s2,0xf
 21c:	706c                	flw	fa1,100(s0)
 21e:	2d203233          	0x2d203233
 222:	636d                	lui	t1,0x1b
 224:	6f6d                	lui	t5,0x1b
 226:	6564                	flw	fs1,76(a0)
 228:	3d6c                	fld	fa1,248(a0)
 22a:	656d                	lui	a0,0x1b
 22c:	6164                	flw	fs1,68(a0)
 22e:	796e                	flw	fs2,248(sp)
 230:	2d20                	fld	fs0,88(a0)
 232:	4f2d2067          	0x4f2d2067
 236:	2032                	fld	ft0,264(sp)
 238:	662d                	lui	a2,0xb
 23a:	6976                	flw	fs2,92(sp)
 23c:	69626973          	csrrsi	s2,0x696,4
 240:	696c                	flw	fa1,84(a0)
 242:	7974                	flw	fa3,116(a0)
 244:	683d                	lui	a6,0xf
 246:	6469                	lui	s0,0x1a
 248:	6564                	flw	fs1,76(a0)
 24a:	206e                	fld	ft0,216(sp)
 24c:	662d                	lui	a2,0xb
 24e:	7266                	flw	ft4,120(sp)
 250:	6565                	lui	a0,0x19
 252:	6e617473          	csrrci	s0,0x6e6,2
 256:	6964                	flw	fs1,84(a0)
 258:	676e                	flw	fa4,216(sp)
 25a:	5f00                	lw	s0,56(a4)
 25c:	625f 6975 746c      	0x746c6975625f
 262:	6e69                	lui	t3,0x1a
 264:	765f 5f61 696c      	0x696c5f61765f
 26a:	64007473          	csrrci	s0,0x640,0
 26e:	7669                	lui	a2,0xffffa
 270:	3175                	jal	ffffff1c <pulp__FC+0xffffff1d>
 272:	0030                	addi	a2,sp,8
 274:	6175                	addi	sp,sp,368
 276:	7472                	flw	fs0,60(sp)
 278:	735f 6e65 6364      	0x63646e65735f
 27e:	6168                	flw	fa0,68(a0)
 280:	0072                	0x72
 282:	7071                	0x7071
 284:	6972                	flw	fs2,28(sp)
 286:	746e                	flw	fs0,248(sp)
 288:	6300                	flw	fs0,0(a4)
 28a:	6b6c                	flw	fa1,84(a4)
 28c:	635f 756f 746e      	0x746e756f635f
 292:	7265                	lui	tp,0xffff9
 294:	5f00                	lw	s0,56(a4)
 296:	675f 756e 5f63      	0x5f63756e675f
 29c:	6176                	flw	ft2,92(sp)
 29e:	6c5f 7369 0074      	0x7473696c5f
 2a4:	6175                	addi	sp,sp,368
 2a6:	7472                	flw	fs0,60(sp)
 2a8:	735f 6e65 0064      	0x646e65735f
 2ae:	6f66                	flw	ft10,88(sp)
 2b0:	6d72                	flw	fs10,28(sp)
 2b2:	7461                	lui	s0,0xffff8
 2b4:	7000                	flw	fs0,32(s0)
 2b6:	696c                	flw	fa1,84(a0)
 2b8:	72705f63          	blez	t2,9f6 <_min_stack-0x160a>
 2bc:	6f69                	lui	t5,0x1a
 2be:	6d00                	flw	fs0,24(a0)
 2c0:	6961                	lui	s2,0x18
 2c2:	626c                	flw	fa1,68(a2)
 2c4:	695f786f          	jal	a6,f8158 <tohost+0xd8150>
 2c8:	65725f73          	csrrwi	t5,0x657,4
 2cc:	7574                	flw	fa3,108(a0)
 2ce:	6e72                	flw	ft8,28(sp)
 2d0:	6d00                	flw	fs0,24(a0)
 2d2:	6961                	lui	s2,0x18
 2d4:	626c                	flw	fa1,68(a2)
 2d6:	695f786f          	jal	a6,f816a <tohost+0xd8162>
 2da:	61635f73          	csrrwi	t5,0x616,6
 2de:	6c6c                	flw	fa1,92(s0)
 2e0:	6d00                	flw	fs0,24(a0)
 2e2:	6961                	lui	s2,0x18
 2e4:	626c                	flw	fa1,68(a2)
 2e6:	635f786f          	jal	a6,f811a <tohost+0xd8112>
 2ea:	656c                	flw	fa1,76(a0)
 2ec:	7261                	lui	tp,0xffff8
 2ee:	645f 6f6f 6272      	0x62726f6f645f
 2f4:	6c65                	lui	s8,0x19
 2f6:	006c                	addi	a1,sp,12
 2f8:	74707373          	csrrci	t1,0x747,0
 2fc:	5f72                	lw	t5,60(sp)
 2fe:	0074                	addi	a3,sp,12
 300:	6164                	flw	fs1,68(a0)
 302:	6174                	flw	fa3,68(a0)
 304:	7500                	flw	fs0,40(a0)
 306:	6e69                	lui	t3,0x1a
 308:	3674                	fld	fa3,232(a2)
 30a:	5f34                	lw	a3,120(a4)
 30c:	0074                	addi	a3,sp,12
 30e:	64616873          	csrrsi	a6,0x646,2
 312:	735f776f          	jal	a4,f8246 <tohost+0xd823e>
 316:	6174                	flw	fa3,68(a0)
 318:	695f6b63          	bltu	t5,s5,9ae <_min_stack-0x1652>
 31c:	75665f73          	csrrwi	t5,0x756,12
 320:	6c6c                	flw	fa1,92(s0)
 322:	6200                	flw	fs0,0(a2)
 324:	7561                	lui	a0,0xffff8
 326:	5f64                	lw	s1,124(a4)
 328:	6172                	flw	ft2,28(sp)
 32a:	6574                	flw	fa3,76(a0)
 32c:	7300                	flw	fs0,32(a4)
 32e:	6168                	flw	fa0,68(a0)
 330:	6f64                	flw	fs1,92(a4)
 332:	74735f77          	0x74735f77
 336:	6361                	lui	t1,0x18
 338:	6873006b          	0x6873006b
 33c:	6461                	lui	s0,0x18
 33e:	735f776f          	jal	a4,f8272 <tohost+0xd826a>
 342:	6174                	flw	fa3,68(a0)
 344:	725f6b63          	bltu	t5,t0,a7a <_min_stack-0x1586>
 348:	7365                	lui	t1,0xffff9
 34a:	6f74                	flw	fa3,92(a4)
 34c:	6572                	flw	fa0,28(sp)
 34e:	6100                	flw	fs0,0(a0)
 350:	6464                	flw	fs1,76(s0)
 352:	6572                	flw	fa0,28(sp)
 354:	70007373          	csrrci	t1,0x700,0
 358:	696c                	flw	fa1,84(a0)
 35a:	6e655f63          	ble	t1,a0,a58 <_min_stack-0x15a8>
 35e:	7300                	flw	fs0,32(a4)
 360:	6168                	flw	fa0,68(a0)
 362:	6f64                	flw	fs1,92(a4)
 364:	74735f77          	0x74735f77
 368:	6361                	lui	t1,0x18
 36a:	68635f6b          	0x68635f6b
 36e:	6365                	lui	t1,0x19
 370:	6873006b          	0x6873006b
 374:	6461                	lui	s0,0x18
 376:	735f776f          	jal	a4,f82aa <tohost+0xd82a2>
 37a:	6174                	flw	fa3,68(a0)
 37c:	705f6b63          	bltu	t5,t0,a92 <_min_stack-0x156e>
 380:	7375                	lui	t1,0xffffd
 382:	0068                	addi	a0,sp,12
 384:	616d                	addi	sp,sp,240
 386:	6e69                	lui	t3,0x1a
 388:	6d00                	flw	fs0,24(a0)
 38a:	6961                	lui	s2,0x18
 38c:	626c                	flw	fa1,68(a2)
 38e:	675f786f          	jal	a6,f8202 <tohost+0xd81fa>
 392:	7465                	lui	s0,0xffff9
 394:	705f 5f63 7273      	0x72735f63705f
 39a:	78650063          	beq	a0,t1,b1a <_min_stack-0x14e6>
 39e:	6574                	flw	fa3,76(a0)
 3a0:	6e72                	flw	ft8,28(sp)
 3a2:	6c61                	lui	s8,0x18
 3a4:	695f 7172 685f      	0x685f7172695f
 3aa:	6e61                	lui	t3,0x18
 3ac:	6c64                	flw	fs1,92(s0)
 3ae:	7265                	lui	tp,0xffff9
 3b0:	7300                	flw	fs0,32(a4)
 3b2:	7a69                	lui	s4,0xffffa
 3b4:	0065                	c.addi	zero,25
 3b6:	6568                	flw	fa0,76(a0)
 3b8:	7061                	0x7061
 3ba:	7300                	flw	fs0,32(a4)
 3bc:	6168                	flw	fa0,68(a0)
 3be:	6f64                	flw	fs1,92(a4)
 3c0:	74735f77          	0x74735f77
 3c4:	6361                	lui	t1,0x18
 3c6:	00745f6b          	0x745f6b
 3ca:	696c                	flw	fa1,84(a0)
 3cc:	696d                	lui	s2,0x1b
 3ce:	0074                	addi	a3,sp,12
 3d0:	616d                	addi	sp,sp,240
 3d2:	6c69                	lui	s8,0x1a
 3d4:	6f62                	flw	ft10,24(sp)
 3d6:	5f78                	lw	a4,124(a4)
 3d8:	706d6f63          	bltu	s10,t1,af6 <_min_stack-0x150a>
 3dc:	656c                	flw	fa1,76(a0)
 3de:	6574                	flw	fa3,76(a0)
 3e0:	7400                	flw	fs0,40(s0)
 3e2:	7365                	lui	t1,0xffff9
 3e4:	5f74                	lw	a3,124(a4)
 3e6:	7266                	flw	ft4,120(sp)
 3e8:	7165                	addi	sp,sp,-400
 3ea:	6100                	flw	fs0,0(a0)
 3ec:	6772                	flw	fa4,28(sp)
 3ee:	68730063          	beq	t1,t2,a6e <_min_stack-0x1592>
 3f2:	6461                	lui	s0,0x18
 3f4:	735f776f          	jal	a4,f8328 <tohost+0xd8320>
 3f8:	6174                	flw	fa3,68(a0)
 3fa:	695f6b63          	bltu	t5,s5,a90 <_min_stack-0x1570>
 3fe:	6d655f73          	csrrwi	t5,0x6d6,10
 402:	7470                	flw	fa2,108(s0)
 404:	0079                	c.addi	zero,30
 406:	6166                	flw	ft2,88(sp)
 408:	6c75                	lui	s8,0x1d
 40a:	0074                	addi	a3,sp,12
 40c:	7261                	lui	tp,0xffff8
 40e:	75007667          	0x75007667
 412:	6e69                	lui	t3,0x1a
 414:	3374                	fld	fa3,224(a4)
 416:	5f32                	lw	t5,44(sp)
 418:	0074                	addi	a3,sp,12
 41a:	5249                	li	tp,-14
 41c:	5f51                	li	t5,-12
 41e:	504d4f43          	fmadd.s	ft10,fs10,ft4,fa0,rmm
 422:	454c                	lw	a1,12(a0)
 424:	4554                	lw	a3,12(a0)
 426:	7300                	flw	fs0,32(a4)
 428:	6168                	flw	fa0,68(a0)
 42a:	6f64                	flw	fs1,92(a4)
 42c:	74735f77          	0x74735f77
 430:	6361                	lui	t1,0x18
 432:	61735f6b          	0x61735f6b
 436:	6576                	flw	fa0,92(sp)
 438:	7300                	flw	fs0,32(a4)
 43a:	6168                	flw	fa0,68(a0)
 43c:	6f64                	flw	fs1,92(a4)
 43e:	61747377          	0x61747377
 442:	632e6b63          	bltu	t3,s2,a78 <_min_stack-0x1588>
 446:	5f00                	lw	s0,56(a4)
 448:	6f42                	flw	ft10,16(sp)
 44a:	6d006c6f          	jal	s8,6b1a <_min_stack+0x4b1a>
 44e:	6961                	lui	s2,0x18
 450:	626c                	flw	fa1,68(a2)
 452:	675f786f          	jal	a6,f82c6 <tohost+0xd82be>
 456:	7465                	lui	s0,0xffff9
 458:	705f 5f63 7364      	0x73645f63705f
 45e:	0074                	addi	a3,sp,12

Disassembly of section .comment:

00000000 <.comment>:
   0:	3a434347          	fmsub.d	ft6,ft6,ft4,ft7,rmm
   4:	2820                	fld	fs0,80(s0)
   6:	29554e47          	fmsub.s	ft8,fa0,fs5,ft5,rmm
   a:	3720                	fld	fs0,104(a4)
   c:	312e                	fld	ft2,232(sp)
   e:	312e                	fld	ft2,232(sp)
  10:	3220                	fld	fs0,96(a2)
  12:	3130                	fld	fa2,96(a0)
  14:	30353037          	lui	zero,0x30353
  18:	0039                	c.addi	zero,14

Disassembly of section .Pulp_Chip.Info:

00000000 <.Pulp_Chip.Info>:
   0:	000a                	0xa
   2:	0000                	unimp
   4:	0038                	addi	a4,sp,8
   6:	0000                	unimp
   8:	0001                	nop
   a:	0000                	unimp
   c:	7550                	flw	fa2,44(a0)
   e:	706c                	flw	fa1,100(s0)
  10:	495f 666e 006f      	0x6f666e495f
  16:	70696863          	bltu	s2,t1,726 <_min_stack-0x18da>
  1a:	6e3d                	lui	t3,0xf
  1c:	20656e6f          	jal	t3,56222 <tohost+0x3621a>
  20:	3d757063          	bleu	s7,a0,3e0 <_min_stack-0x1c20>
  24:	6f6e                	flw	ft10,216(sp)
  26:	656e                	flw	fa0,216(sp)
  28:	7020                	flw	fs0,96(s0)
  2a:	3d65                	jal	fffffee2 <pulp__FC+0xfffffee3>
  2c:	312d                	jal	fffffc56 <pulp__FC+0xfffffc57>
  2e:	6620                	flw	fs0,72(a2)
  30:	312d3d63          	p.bneimm	s10,-14,34a <_min_stack-0x1cb6>
  34:	6c20                	flw	fs0,88(s0)
  36:	3d32                	fld	fs10,296(sp)
  38:	312d                	jal	fffffc62 <pulp__FC+0xfffffc63>
  3a:	6c20                	flw	fs0,88(s0)
  3c:	6331                	lui	t1,0xc
  3e:	3d6c                	fld	fa1,248(a0)
  40:	312d                	jal	fffffc6a <pulp__FC+0xfffffc6b>
  42:	6c20                	flw	fs0,88(s0)
  44:	6631                	lui	a2,0xc
  46:	312d3d63          	p.bneimm	s10,-14,360 <_min_stack-0x1ca0>
  4a:	0000                	unimp
	...
